Microchip MPLAB XC8 Compiler V2.45

Linker command line:

-W-3 \
  --edf=C:\Program Files\Microchip\xc8\v2.45\pic\dat\20230818022343_en.msgs \
  -cn -h+dist/default/production\RTC_API.X.production.sym \
  --cmf=dist/default/production\RTC_API.X.production.cmf -z -Q16F877A \
  -oC:\Users\POOJAA~1\AppData\Local\Temp\xcAsb2k.\driver_tmp_3.o \
  --defsym=__MPLAB_BUILD=1 --fixupoverflow=error \
  -Mdist/default/production/RTC_API.X.production.map \
  --md=C:\Users\POOJAA~1\AppData\Local\Temp\xcAsb2k.\driver_tmp_0.dat -E1 \
  -ver=XC8 Compiler --acfsm=1493 -ACODE=00h-07FFhx4 -ASTRCODE=00h-01FFFh \
  -ASTRING=00h-0FFhx32 -ACONST=00h-0FFhx32 -AENTRY=00h-0FFhx32 \
  -ACOMMON=070h-07Fh -ABANK0=020h-06Fh -ABANK1=0A0h-0EFh \
  -ABANK2=0110h-016Fh -ABANK3=0190h-01EFh \
  -ARAM=020h-06Fh,0A0h-0EFh,0110h-016Fh,0190h-01EFh \
  -AABS1=020h-07Fh,0A0h-0EFh,0110h-016Fh,0190h-01EFh -ASFR0=00h-01Fh \
  -ASFR1=080h-09Fh -ASFR2=0100h-010Fh -ASFR3=0180h-018Fh \
  -ACONFIG=02007h-02007h -DCONFIG=2 -AIDLOC=02000h-02003h -DIDLOC=2 \
  -AEEDATA=00h-0FFh/02100h -peeprom_data=EEDATA -DEEDATA=2 -DCODE=2 \
  -DSTRCODE=2 -DSTRING=2 -DCONST=2 -DENTRY=2 \
  -preset_vec=00h,intentry,init,end_init -ppowerup=CODE -pcinit=CODE \
  -pfunctab=ENTRY -k \
  C:\Users\POOJAA~1\AppData\Local\Temp\xcAsb2k.\driver_tmp_12.o \
  dist/default/production\RTC_API.X.production.o 

Object code version is 3.11

Machine type is 16F877A



                Name                               Link     Load   Length Selector   Space Scale
C:\Users\POOJAA~1\AppData\Local\Temp\xcAsb2k.\driver_tmp_12.o
                end_init                              0        0        3        0       0
dist/default/production\RTC_API.X.production.o
                cinit                               7EA      7EA       16      FD4       0
                text20                               B9       B9       15      172       0
                text19                               60       60       11       C0       0
                text18                               71       71       11       E2       0
                text17                              3EE      3EE       CD      7DC       0
                text16                              292      292       66      524       0
                text15                              1A4      1A4       36      348       0
                text14                               82       82       11      104       0
                text13                              233      233       5F      466       0
                text12                              2F8      2F8       67      5F0       0
                text11                              1DA      1DA       59      3B4       0
                text10                              140      140       30      280       0
                text9                                53       53        D       A6       0
                text8                                41       41        9       82       0
                text7                                4A       4A        9       94       0
                text6                                93       93       13      126       0
                text5                               35F      35F       8F      6BE       0
                text4                                CE       CE       25      19C       0
                text3                                F3       F3       25      1E6       0
                text2                               118      118       28      230       0
                text1                               4BB      4BB       D6      976       0
                maintext                            591      591      259      B22       0
                cstackBANK0                          54       54        B       20       1
                cstackCOMMON                         70       70        E       70       1
                inittext                             A6       A6       13      14C       0
                dataBANK0                            20       20       34       20       1
                bssBANK0                             5F       5F        4       20       1
                idataBANK0                          170      170       34      2E0       0

TOTAL           Name                               Link     Load   Length     Space
        CLASS   CODE           
                end_init                              0        0        3         0
                cinit                               7EA      7EA       16         0
                text20                               B9       B9       15         0
                text19                               60       60       11         0
                text18                               71       71       11         0
                text17                              3EE      3EE       CD         0
                text16                              292      292       66         0
                text15                              1A4      1A4       36         0
                text14                               82       82       11         0
                text13                              233      233       5F         0
                text12                              2F8      2F8       67         0
                text11                              1DA      1DA       59         0
                text10                              140      140       30         0
                text9                                53       53        D         0
                text8                                41       41        9         0
                text7                                4A       4A        9         0
                text6                                93       93       13         0
                text5                               35F      35F       8F         0
                text4                                CE       CE       25         0
                text3                                F3       F3       25         0
                text2                               118      118       28         0
                text1                               4BB      4BB       D6         0
                maintext                            591      591      259         0
                inittext                             A6       A6       13         0
                idataBANK0                          170      170       34         0

        CLASS   STRCODE        

        CLASS   STRING         

        CLASS   CONST          

        CLASS   ENTRY          

        CLASS   COMMON         
                cstackCOMMON                         70       70        E         1

        CLASS   BANK0          
                cstackBANK0                          54       54        B         1
                dataBANK0                            20       20       34         1
                bssBANK0                             5F       5F        4         1

        CLASS   BANK1          

        CLASS   BANK2          

        CLASS   BANK3          

        CLASS   RAM            

        CLASS   ABS1           
                abs_s1                               7E       7E        2         1

        CLASS   SFR0           

        CLASS   SFR1           

        CLASS   SFR2           

        CLASS   SFR3           

        CLASS   CONFIG         

        CLASS   IDLOC          

        CLASS   EEDATA         

        CLASS   HEAP           

        CLASS   STACK          



SEGMENTS        Name                           Load    Length   Top    Selector   Space  Class     Delta

                reset_vec                      000000  000003  000003         0       0  CODE        2
                dataBANK0                      000020  000043  000063        20       1  BANK0       1
                cstackCOMMON                   000070  00000E  00007E        70       1  COMMON      1
                text8                          000041  000009  00004A        82       0  CODE        2
                text7                          00004A  000009  000053        94       0  CODE        2
                text9                          000053  00000D  000060        A6       0  CODE        2
                text19                         000060  000011  000071        C0       0  CODE        2
                text18                         000071  000011  000082        E2       0  CODE        2
                text14                         000082  000011  000093       104       0  CODE        2
                text6                          000093  000013  0000A6       126       0  CODE        2
                inittext                       0000A6  000013  0000B9       14C       0  CODE        2
                text20                         0000B9  000015  0000CE       172       0  CODE        2
                text4                          0000CE  000025  0000F3       19C       0  CODE        2
                text3                          0000F3  000025  000118       1E6       0  CODE        2
                text2                          000118  000028  000140       230       0  CODE        2
                text10                         000140  000030  000170       280       0  CODE        2
                idataBANK0                     000170  000034  0001A4       2E0       0  CODE        2
                text15                         0001A4  000036  0001DA       348       0  CODE        2
                text11                         0001DA  000059  000233       3B4       0  CODE        2
                text13                         000233  00005F  000292       466       0  CODE        2
                text16                         000292  000066  0002F8       524       0  CODE        2
                text12                         0002F8  000067  00035F       5F0       0  CODE        2
                text5                          00035F  00008F  0003EE       6BE       0  CODE        2
                text17                         0003EE  0000CD  0004BB       7DC       0  CODE        2
                text1                          0004BB  0000D6  000591       976       0  CODE        2
                maintext                       000591  000259  0007EA       B22       0  CODE        2
                cinit                          0007EA  000016  000800       FD4       0  CODE        2


UNUSED ADDRESS RANGES

        Name                Unused          Largest block    Delta
        BANK0            0063-006F              D           1
        BANK1            00A0-00EF             50           1
        BANK2            0110-016F             60           1
        BANK3            0190-01EF             60           1
        CODE             0003-0040             3E           2
                         0800-1FFF            800
        CONFIG           2007-2007              1           2
        CONST            0003-0040             3E           2
                         0800-1FFF            100
        EEDATA           2100-21FF            100           2
        ENTRY            0003-0040             3E           2
                         0800-1FFF            100
        IDLOC            2000-2003              4           2
        RAM              0063-006F              D           1
                         00A0-00EF             50
                         0110-016F             60
                         0190-01EF             60
        SFR0             0000-001F             20           1
        SFR1             0080-009F             20           1
        SFR2             0100-010F             10           1
        SFR3             0180-018F             10           1
        STRCODE          0003-0040             3E           2
                         0800-1FFF           1800
        STRING           0003-0040             3E           2
                         0800-1FFF            100

                                  Symbol Table

?___awdiv                cstackCOMMON 0070
?___awmod                cstackCOMMON 0070
?___lldiv                cstackCOMMON 0070
?___wmul                 cstackCOMMON 0070
?_bcd2dec                cstackCOMMON 0076
?_dec2bcd                cstackCOMMON 0078
_RC0                     (abs)        0038
_RC1                     (abs)        0039
__H__absolute__          __absolute__ 0000
__Habs1                  abs1         0000
__Hbank0                 bank0        0000
__Hbank1                 bank1        0000
__Hbank2                 bank2        0000
__Hbank3                 bank3        0000
__HbssBANK0              bssBANK0     0000
__Hcinit                 cinit        0800
__Hclrtext               clrtext      0000
__Hcode                  code         0000
__Hcommon                common       0000
__HcstackBANK0           cstackBANK0  0000
__HcstackCOMMON          cstackCOMMON 0000
__HdataBANK0             dataBANK0    0000
__Heeprom_data           eeprom_data  0000
__Hend_init              end_init     0003
__Hfunctab               functab      0000
__Hheap                  heap         0000
__HidataBANK0            idataBANK0   0000
__Hinit                  init         0000
__Hinittext              inittext     0000
__Hintentry              intentry     0000
__Hmaintext              maintext     0000
__Hpowerup               powerup      0000
__Hram                   ram          0000
__Hreset_vec             reset_vec    0000
__Hsfr0                  sfr0         0000
__Hsfr1                  sfr1         0000
__Hsfr2                  sfr2         0000
__Hsfr3                  sfr3         0000
__Hspace_0               (abs)        0800
__Hspace_1               (abs)        007E
__Hspace_2               (abs)        0000
__Hspace_3               (abs)        0000
__Hstack                 stack        0000
__Hstrings               strings      0000
__Htext                  text         0000
__L__absolute__          __absolute__ 0000
__Labs1                  abs1         0000
__Lbank0                 bank0        0000
__Lbank1                 bank1        0000
__Lbank2                 bank2        0000
__Lbank3                 bank3        0000
__LbssBANK0              bssBANK0     0000
__Lcinit                 cinit        07EA
__Lclrtext               clrtext      0000
__Lcode                  code         0000
__Lcommon                common       0000
__LcstackBANK0           cstackBANK0  0000
__LcstackCOMMON          cstackCOMMON 0000
__LdataBANK0             dataBANK0    0000
__Leeprom_data           eeprom_data  0000
__Lend_init              end_init     0000
__Lfunctab               functab      0000
__Lheap                  heap         0000
__LidataBANK0            idataBANK0   0000
__Linit                  init         0000
__Linittext              inittext     0000
__Lintentry              intentry     0000
__Lmaintext              maintext     0000
__Lpowerup               powerup      0000
__Lram                   ram          0000
__Lreset_vec             reset_vec    0000
__Lsfr0                  sfr0         0000
__Lsfr1                  sfr1         0000
__Lsfr2                  sfr2         0000
__Lsfr3                  sfr3         0000
__Lspace_0               (abs)        0000
__Lspace_1               (abs)        0000
__Lspace_2               (abs)        0000
__Lspace_3               (abs)        0000
__Lstack                 stack        0000
__Lstrings               strings      0000
__Ltext                  text         0000
__S0                     (abs)        0800
__S1                     (abs)        007E
__S3                     (abs)        0000
___awdiv                 text12       02F8
___awdiv@counter         cstackCOMMON 0074
___awdiv@dividend        cstackCOMMON 0072
___awdiv@divisor         cstackCOMMON 0070
___awdiv@quotient        cstackCOMMON 0076
___awdiv@sign            cstackCOMMON 0075
___awmod                 text11       01DA
___awmod@counter         cstackCOMMON 0074
___awmod@dividend        cstackCOMMON 0072
___awmod@divisor         cstackCOMMON 0070
___awmod@sign            cstackCOMMON 0075
___bmul                  text20       00B9
___bmul@multiplicand     cstackCOMMON 0070
___bmul@multiplier       cstackCOMMON 0072
___bmul@product          cstackCOMMON 0071
___heap_hi               (abs)        0000
___heap_lo               (abs)        0000
___int_sp                stack        0000
___int_stack_hi          stack        0000
___int_stack_lo          stack        0000
___latbits               (abs)        0002
___lldiv                 text16       0292
___lldiv@counter         cstackCOMMON 007D
___lldiv@dividend        cstackCOMMON 0074
___lldiv@divisor         cstackCOMMON 0070
___lldiv@quotient        cstackCOMMON 0079
___sp                    stack        0000
___stack_hi              stack        0000
___stack_lo              stack        0000
___stackhi               (abs)        0000
___stacklo               (abs)        0000
___wmul                  text4        00CE
___wmul@multiplicand     cstackCOMMON 0072
___wmul@multiplier       cstackCOMMON 0070
___wmul@product          cstackCOMMON 0074
__end_of___awdiv         text12       035F
__end_of___awmod         text11       0233
__end_of___bmul          text20       00CE
__end_of___lldiv         text16       02F8
__end_of___wmul          text4        00F3
__end_of__initialization cinit        07FC
__end_of_bcd2dec         text3        0118
__end_of_days            text17       04BB
__end_of_dec2bcd         text10       0170
__end_of_delay           text19       0071
__end_of_i2c_init        text15       01DA
__end_of_i2c_read        text2        0140
__end_of_i2c_start       text8        004A
__end_of_i2c_stop        text7        0053
__end_of_i2c_wait        text9        0060
__end_of_i2c_write       text6        00A6
__end_of_init            text13       0292
__end_of_lcd_cmd         text14       0093
__end_of_lcd_data        text18       0082
__end_of_main            maintext     07EA
__end_of_setup           text5        03EE
__end_of_update          text1        0591
__initialization         cinit        07EA
__pbssBANK0              bssBANK0     005F
__pcstackBANK0           cstackBANK0  0054
__pcstackCOMMON          cstackCOMMON 0070
__pdataBANK0             dataBANK0    0020
__pidataBANK0            idataBANK0   0170
__pmaintext              maintext     0591
__ptext1                 text1        04BB
__ptext10                text10       0140
__ptext11                text11       01DA
__ptext12                text12       02F8
__ptext13                text13       0233
__ptext14                text14       0082
__ptext15                text15       01A4
__ptext16                text16       0292
__ptext17                text17       03EE
__ptext18                text18       0071
__ptext19                text19       0060
__ptext2                 text2        0118
__ptext20                text20       00B9
__ptext3                 text3        00F3
__ptext4                 text4        00CE
__ptext5                 text5        035F
__ptext6                 text6        0093
__ptext7                 text7        004A
__ptext8                 text8        0041
__ptext9                 text9        0053
_bcd2dec                 text3        00F3
_date                    dataBANK0    0038
_day                     dataBANK0    0034
_days                    text17       03EE
_dec2bcd                 text10       0140
_delay                   text19       0060
_hour                    dataBANK0    003A
_hour1                   bssBANK0     005F
_i                       bssBANK0     0061
_i2c_init                text15       01A4
_i2c_read                text2        0118
_i2c_start               text8        0041
_i2c_stop                text7        004A
_i2c_wait                text9        0053
_i2c_write               text6        0093
_init                    text13       0233
_lcd_cmd                 text14       0082
_lcd_data                text18       0071
_main                    maintext     0591
_min                     dataBANK0    003C
_mode1                   dataBANK0    002E
_mode2                   dataBANK0    002A
_month                   dataBANK0    0036
_msg1                    dataBANK0    0025
_msg2                    dataBANK0    0020
_sec                     dataBANK0    003E
_setup                   text5        035F
_update                  text1        04BB
_year                    dataBANK0    0032
bcd2dec@temp             cstackCOMMON 0076
btemp                    (abs)        007E
days@day                 cstackCOMMON 0075
dec2bcd@temp             cstackCOMMON 0078
delay@del                cstackCOMMON 0073
end_of_initialization    cinit        07FC
i2c_init@baud            cstackBANK0  0054
i2c_read@val             cstackCOMMON 0072
i2c_write@data           cstackCOMMON 0070
init_fetch0              inittext     00A6
init_ram0                inittext     00AA
intlevel0                functab      0000
intlevel1                functab      0000
intlevel2                functab      0000
intlevel3                functab      0000
intlevel4                functab      0000
intlevel5                functab      0000
lcd_cmd@i                cstackCOMMON 0074
lcd_data@i               cstackCOMMON 0074
reset_vec                reset_vec    0000
start                    init         0000
start_initialization     cinit        07EA
wtemp0                   (abs)        007E


MODULE INFORMATION

Module		Function		Class		Link	Load	Size
C:\Program Files\Microchip\xc8\v2.45\pic\sources\c99\common\Umul16.c
		___wmul        		CODE           	00CE	0000	37

C:\Program Files\Microchip\xc8\v2.45\pic\sources\c99\common\Umul16.c estimated size: 37

C:\Program Files\Microchip\xc8\v2.45\pic\sources\c99\common\Umul8.c
		___bmul        		CODE           	00B9	0000	21

C:\Program Files\Microchip\xc8\v2.45\pic\sources\c99\common\Umul8.c estimated size: 21

RTC_API_main.c
		_main          		CODE           	0591	0000	601

RTC_API_main.c estimated size: 601

RTC_API_driver.c
		_init          		CODE           	0233	0000	95
		_update        		CODE           	04BB	0000	214
		_delay         		CODE           	0060	0000	17
		_i2c_start     		CODE           	0041	0000	9
		_lcd_cmd       		CODE           	0082	0000	17
		_lcd_data      		CODE           	0071	0000	17
		_days          		CODE           	03EE	0000	205
		_dec2bcd       		CODE           	0140	0000	48
		_i2c_write     		CODE           	0093	0000	19
		_i2c_stop      		CODE           	004A	0000	9
		_i2c_wait      		CODE           	0053	0000	13
		_i2c_read      		CODE           	0118	0000	40
		_setup         		CODE           	035F	0000	143
		_i2c_init      		CODE           	01A4	0000	54
		_bcd2dec       		CODE           	00F3	0000	37

RTC_API_driver.c estimated size: 937

C:\Program Files\Microchip\xc8\v2.45\pic\sources\c99\common\awmod.c
		___awmod       		CODE           	01DA	0000	89

C:\Program Files\Microchip\xc8\v2.45\pic\sources\c99\common\awmod.c estimated size: 89

shared
		__initialization		CODE           	07EA	0000	18

shared estimated size: 18

C:\Program Files\Microchip\xc8\v2.45\pic\sources\c99\common\__lldiv.c
		___lldiv       		CODE           	0292	0000	102

C:\Program Files\Microchip\xc8\v2.45\pic\sources\c99\common\__lldiv.c estimated size: 102

C:\Program Files\Microchip\xc8\v2.45\pic\sources\c99\common\awdiv.c
		___awdiv       		CODE           	02F8	0000	103

C:\Program Files\Microchip\xc8\v2.45\pic\sources\c99\common\awdiv.c estimated size: 103

