

Microchip MPLAB XC8 Assembler V2.45 build 20230818022343 
                                                                                               Thu May 30 18:02:31 2024

Microchip MPLAB XC8 C Compiler v2.45 (Free license) build 20230818022343 Og1 
     1                           	processor	16F877A
     2                           	pagewidth 120
     3                           	opt	flic
     4                           	psect	idataBANK0,global,class=CODE,delta=2,noexec
     5                           	psect	cinit,global,class=CODE,merge=1,delta=2
     6                           	psect	bssBANK0,global,class=BANK0,space=1,delta=1,noexec
     7                           	psect	dataBANK0,global,class=BANK0,space=1,delta=1,noexec
     8                           	psect	inittext,global,class=CODE,delta=2
     9                           	psect	cstackCOMMON,global,class=COMMON,space=1,delta=1,noexec
    10                           	psect	cstackBANK0,global,class=BANK0,space=1,delta=1,noexec
    11                           	psect	maintext,global,class=CODE,split=1,delta=2
    12                           	psect	text1,local,class=CODE,merge=1,delta=2
    13                           	psect	text2,local,class=CODE,merge=1,delta=2
    14                           	psect	text3,local,class=CODE,merge=1,delta=2,group=1
    15                           	psect	text4,local,class=CODE,merge=1,delta=2
    16                           	psect	text5,local,class=CODE,merge=1,delta=2
    17                           	psect	text6,local,class=CODE,merge=1,delta=2,group=1
    18                           	psect	text7,local,class=CODE,merge=1,delta=2,group=1
    19                           	psect	text8,local,class=CODE,merge=1,delta=2
    20                           	psect	text9,local,class=CODE,merge=1,delta=2
    21                           	psect	text10,local,class=CODE,merge=1,delta=2
    22                           	psect	text11,local,class=CODE,merge=1,delta=2,group=1
    23                           	psect	text12,local,class=CODE,merge=1,delta=2
    24                           	psect	text13,local,class=CODE,merge=1,delta=2
    25                           	psect	text14,local,class=CODE,merge=1,delta=2
    26                           	psect	text15,local,class=CODE,merge=1,delta=2
    27                           	psect	text16,local,class=CODE,merge=1,delta=2
    28                           	psect	text17,local,class=CODE,merge=1,delta=2
    29                           	psect	text18,local,class=CODE,merge=1,delta=2
    30                           	psect	text19,local,class=CODE,merge=1,delta=2
    31                           	psect	text20,local,class=CODE,merge=1,delta=2
    32                           	psect	text21,local,class=CODE,merge=1,delta=2
    33                           	psect	text22,local,class=CODE,merge=1,delta=2
    34                           	dabs	1,0x7E,2
    35     0000                     
    36                           ; Generated 22/03/2023 GMT
    37                           ; 
    38                           ; Copyright © 2023, Microchip Technology Inc. and its subsidiaries ("Microchip")
    39                           ; All rights reserved.
    40                           ; 
    41                           ; This software is developed by Microchip Technology Inc. and its subsidiaries ("Microch
      +                          ip").
    42                           ; 
    43                           ; Redistribution and use in source and binary forms, with or without modification, are
    44                           ; permitted provided that the following conditions are met:
    45                           ; 
    46                           ;     1. Redistributions of source code must retain the above copyright notice, this lis
      +                          t of
    47                           ;        conditions and the following disclaimer.
    48                           ; 
    49                           ;     2. Redistributions in binary form must reproduce the above copyright notice, this 
      +                          list
    50                           ;        of conditions and the following disclaimer in the documentation and/or other
    51                           ;        materials provided with the distribution. Publication is not required when
    52                           ;        this file is used in an embedded application.
    53                           ; 
    54                           ;     3. Microchip's name may not be used to endorse or promote products derived from th
      +                          is
    55                           ;        software without specific prior written permission.
    56                           ; 
    57                           ; THIS SOFTWARE IS PROVIDED BY MICROCHIP "AS IS" AND ANY EXPRESS OR IMPLIED WARRANTIES,
    58                           ; INCLUDING, BUT NOT LIMITED TO, THE IMPLIED WARRANTIES OF MERCHANTABILITY AND FITNESS F
      +                          OR
    59                           ; PURPOSE ARE DISCLAIMED.  IN NO EVENT SHALL MICROCHIP BE LIABLE FOR ANY DIRECT, INDIREC
      +                          T,
    60                           ; INCIDENTAL, SPECIAL, EXEMPLARY, OR CONSEQUENTIAL DAMAGES (INCLUDING BUT NOT LIMITED TO
    61                           ; PROCUREMENT OF SUBSTITUTE GOODS OR SERVICES; LOSS OF USE, DATA OR PROFITS; OR BUSINESS
    62                           ; INTERRUPTION) HOWSOEVER CAUSED AND ON ANY THEORY OF LIABILITY, WHETHER IN CONTRACT, ST
      +                          RICT
    63                           ; LIABILITY, OR TORT (INCLUDING NEGLIGENCE OR OTHERWISE) ARISING IN ANY WAY OUT OF THE U
      +                          SE OF
    64                           ; THIS SOFTWARE, EVEN IF ADVISED OF THE POSSIBILITY OF SUCH DAMAGE.
    65                           ; 
    66                           ; 
    67                           ; Code-generator required, PIC16F877A Definitions
    68                           ; 
    69                           ; SFR Addresses
    70     0000                     	;# 
    71     0001                     	;# 
    72     0002                     	;# 
    73     0003                     	;# 
    74     0004                     	;# 
    75     0005                     	;# 
    76     0006                     	;# 
    77     0007                     	;# 
    78     0008                     	;# 
    79     0009                     	;# 
    80     000A                     	;# 
    81     000B                     	;# 
    82     000C                     	;# 
    83     000D                     	;# 
    84     000E                     	;# 
    85     000E                     	;# 
    86     000F                     	;# 
    87     0010                     	;# 
    88     0011                     	;# 
    89     0012                     	;# 
    90     0013                     	;# 
    91     0014                     	;# 
    92     0015                     	;# 
    93     0015                     	;# 
    94     0016                     	;# 
    95     0017                     	;# 
    96     0018                     	;# 
    97     0019                     	;# 
    98     001A                     	;# 
    99     001B                     	;# 
   100     001B                     	;# 
   101     001C                     	;# 
   102     001D                     	;# 
   103     001E                     	;# 
   104     001F                     	;# 
   105     0081                     	;# 
   106     0085                     	;# 
   107     0086                     	;# 
   108     0087                     	;# 
   109     0088                     	;# 
   110     0089                     	;# 
   111     008C                     	;# 
   112     008D                     	;# 
   113     008E                     	;# 
   114     0091                     	;# 
   115     0092                     	;# 
   116     0093                     	;# 
   117     0094                     	;# 
   118     0098                     	;# 
   119     0099                     	;# 
   120     009C                     	;# 
   121     009D                     	;# 
   122     009E                     	;# 
   123     009F                     	;# 
   124     010C                     	;# 
   125     010D                     	;# 
   126     010E                     	;# 
   127     010F                     	;# 
   128     018C                     	;# 
   129     018D                     	;# 
   130     0000                     	;# 
   131     0001                     	;# 
   132     0002                     	;# 
   133     0003                     	;# 
   134     0004                     	;# 
   135     0005                     	;# 
   136     0006                     	;# 
   137     0007                     	;# 
   138     0008                     	;# 
   139     0009                     	;# 
   140     000A                     	;# 
   141     000B                     	;# 
   142     000C                     	;# 
   143     000D                     	;# 
   144     000E                     	;# 
   145     000E                     	;# 
   146     000F                     	;# 
   147     0010                     	;# 
   148     0011                     	;# 
   149     0012                     	;# 
   150     0013                     	;# 
   151     0014                     	;# 
   152     0015                     	;# 
   153     0015                     	;# 
   154     0016                     	;# 
   155     0017                     	;# 
   156     0018                     	;# 
   157     0019                     	;# 
   158     001A                     	;# 
   159     001B                     	;# 
   160     001B                     	;# 
   161     001C                     	;# 
   162     001D                     	;# 
   163     001E                     	;# 
   164     001F                     	;# 
   165     0081                     	;# 
   166     0085                     	;# 
   167     0086                     	;# 
   168     0087                     	;# 
   169     0088                     	;# 
   170     0089                     	;# 
   171     008C                     	;# 
   172     008D                     	;# 
   173     008E                     	;# 
   174     0091                     	;# 
   175     0092                     	;# 
   176     0093                     	;# 
   177     0094                     	;# 
   178     0098                     	;# 
   179     0099                     	;# 
   180     009C                     	;# 
   181     009D                     	;# 
   182     009E                     	;# 
   183     009F                     	;# 
   184     010C                     	;# 
   185     010D                     	;# 
   186     010E                     	;# 
   187     010F                     	;# 
   188     018C                     	;# 
   189     018D                     	;# 
   190     0000                     	;# 
   191     0001                     	;# 
   192     0002                     	;# 
   193     0003                     	;# 
   194     0004                     	;# 
   195     0005                     	;# 
   196     0006                     	;# 
   197     0007                     	;# 
   198     0008                     	;# 
   199     0009                     	;# 
   200     000A                     	;# 
   201     000B                     	;# 
   202     000C                     	;# 
   203     000D                     	;# 
   204     000E                     	;# 
   205     000E                     	;# 
   206     000F                     	;# 
   207     0010                     	;# 
   208     0011                     	;# 
   209     0012                     	;# 
   210     0013                     	;# 
   211     0014                     	;# 
   212     0015                     	;# 
   213     0015                     	;# 
   214     0016                     	;# 
   215     0017                     	;# 
   216     0018                     	;# 
   217     0019                     	;# 
   218     001A                     	;# 
   219     001B                     	;# 
   220     001B                     	;# 
   221     001C                     	;# 
   222     001D                     	;# 
   223     001E                     	;# 
   224     001F                     	;# 
   225     0081                     	;# 
   226     0085                     	;# 
   227     0086                     	;# 
   228     0087                     	;# 
   229     0088                     	;# 
   230     0089                     	;# 
   231     008C                     	;# 
   232     008D                     	;# 
   233     008E                     	;# 
   234     0091                     	;# 
   235     0092                     	;# 
   236     0093                     	;# 
   237     0094                     	;# 
   238     0098                     	;# 
   239     0099                     	;# 
   240     009C                     	;# 
   241     009D                     	;# 
   242     009E                     	;# 
   243     009F                     	;# 
   244     010C                     	;# 
   245     010D                     	;# 
   246     010E                     	;# 
   247     010F                     	;# 
   248     018C                     	;# 
   249     018D                     	;# 
   250                           
   251                           	psect	idataBANK0
   252     0011                     __pidataBANK0:
   253                           
   254                           ;initializer for _msg2
   255     0011  3444               	retlw	68
   256     0012  3441               	retlw	65
   257     0013  3454               	retlw	84
   258     0014  343A               	retlw	58
   259     0015  3400               	retlw	0
   260                           
   261                           ;initializer for _msg1
   262     0016  3454               	retlw	84
   263     0017  3449               	retlw	73
   264     0018  344D               	retlw	77
   265     0019  343A               	retlw	58
   266     001A  3400               	retlw	0
   267                           
   268                           ;initializer for _mode2
   269     001B  3420               	retlw	32
   270     001C  3450               	retlw	80
   271     001D  344D               	retlw	77
   272     001E  3400               	retlw	0
   273                           
   274                           ;initializer for _mode1
   275     001F  3420               	retlw	32
   276     0020  3441               	retlw	65
   277     0021  344D               	retlw	77
   278     0022  3400               	retlw	0
   279                           
   280                           ;initializer for _year
   281     0023  3418               	retlw	24
   282     0024  3400               	retlw	0
   283                           
   284                           ;initializer for _day
   285     0025  3401               	retlw	1
   286     0026  3400               	retlw	0
   287                           
   288                           ;initializer for _month
   289     0027  3404               	retlw	4
   290     0028  3400               	retlw	0
   291                           
   292                           ;initializer for _date
   293     0029  3408               	retlw	8
   294     002A  3400               	retlw	0
   295                           
   296                           ;initializer for _hour
   297     002B  340B               	retlw	11
   298     002C  3400               	retlw	0
   299                           
   300                           ;initializer for _min
   301     002D  343B               	retlw	59
   302     002E  3400               	retlw	0
   303                           
   304                           ;initializer for _sec
   305     002F  343A               	retlw	58
   306     0030  3400               	retlw	0
   307     0007                     _PORTC	set	7
   308     0008                     _PORTD	set	8
   309     0013                     _SSPBUF	set	19
   310     0014                     _SSPCON	set	20
   311     0038                     _RC0	set	56
   312     0039                     _RC1	set	57
   313     0063                     _SSPIF	set	99
   314     0088                     _TRISD	set	136
   315     0087                     _TRISC	set	135
   316     0094                     _SSPSTAT	set	148
   317     0093                     _SSPADD	set	147
   318     0091                     _SSPCON2	set	145
   319     048C                     _ACKEN	set	1164
   320     048D                     _ACKDT	set	1165
   321     048B                     _RCEN	set	1163
   322     048E                     _ACKSTAT	set	1166
   323     048A                     _PEN	set	1162
   324     0489                     _RSEN	set	1161
   325     0488                     _SEN	set	1160
   326                           
   327                           	psect	cinit
   328     07EA                     start_initialization:	
   329                           ; #config settings
   330                           
   331     07EA                     __initialization:
   332                           
   333                           ; Initialize objects allocated to BANK0
   334     07EA  1383               	bcf	3,7	;select IRP bank0
   335     07EB  3040               	movlw	low (__pdataBANK0+32)
   336     07EC  00FD               	movwf	btemp+-1
   337     07ED  3000               	movlw	high __pidataBANK0
   338     07EE  00FE               	movwf	btemp
   339     07EF  3011               	movlw	low __pidataBANK0
   340     07F0  00FF               	movwf	btemp+1
   341     07F1  3020               	movlw	low __pdataBANK0
   342     07F2  0084               	movwf	4
   343     07F3  120A  158A  279D  120A  118A  	fcall	init_ram0
   344                           
   345                           ; Clear objects allocated to BANK0
   346     07F8  01D2               	clrf	__pbssBANK0& (0+127)
   347     07F9  01D3               	clrf	(__pbssBANK0+1)& (0+127)
   348     07FA  01D4               	clrf	(__pbssBANK0+2)& (0+127)
   349     07FB  01D5               	clrf	(__pbssBANK0+3)& (0+127)
   350     07FC                     end_of_initialization:	
   351                           ;End of C runtime variable initialization code
   352                           
   353     07FC                     __end_of__initialization:
   354     07FC  0183               	clrf	3
   355     07FD  120A  118A  2D1A   	ljmp	_main	;jump to C main() function
   356                           
   357                           	psect	bssBANK0
   358     0052                     __pbssBANK0:
   359     0052                     _hour1:
   360     0052                     	ds	2
   361     0054                     _i:
   362     0054                     	ds	2
   363                           
   364                           	psect	dataBANK0
   365     0020                     __pdataBANK0:
   366     0020                     _msg2:
   367     0020                     	ds	5
   368     0025                     _msg1:
   369     0025                     	ds	5
   370     002A                     _mode2:
   371     002A                     	ds	4
   372     002E                     _mode1:
   373     002E                     	ds	4
   374     0032                     _year:
   375     0032                     	ds	2
   376     0034                     _day:
   377     0034                     	ds	2
   378     0036                     _month:
   379     0036                     	ds	2
   380     0038                     _date:
   381     0038                     	ds	2
   382     003A                     _hour:
   383     003A                     	ds	2
   384     003C                     _min:
   385     003C                     	ds	2
   386     003E                     _sec:
   387     003E                     	ds	2
   388                           
   389                           	psect	inittext
   390     0F99                     init_fetch0:	
   391                           ;	Called with low address in FSR and high address in W
   392                           
   393     0F99  087E               	movf	btemp,w
   394     0F9A  008A               	movwf	10
   395     0F9B  087F               	movf	btemp+1,w
   396     0F9C  0082               	movwf	2
   397     0F9D                     init_ram0:	
   398                           ;Called with:
   399                           ;	high address of idata address in btemp 
   400                           ;	low address of idata address in btemp+1 
   401                           ;	low address of data in FSR
   402                           ;	high address + 1 of data in btemp-1
   403                           
   404     0F9D  120A  158A  2799  120A  158A  	fcall	init_fetch0
   405     0FA2  0080               	movwf	0
   406     0FA3  0A84               	incf	4,f
   407     0FA4  0804               	movf	4,w
   408     0FA5  067D               	xorwf	btemp+-1,w
   409     0FA6  1903               	btfsc	3,2
   410     0FA7  3400               	retlw	0
   411     0FA8  0AFF               	incf	btemp+1,f
   412     0FA9  1903               	btfsc	3,2
   413     0FAA  0AFE               	incf	btemp,f
   414     0FAB  2F9D               	goto	init_ram0
   415                           
   416                           	psect	cstackCOMMON
   417     0070                     __pcstackCOMMON:
   418     0070                     ?_init:
   419     0070                     ?_setup:	
   420                           ; 1 bytes @ 0x0
   421                           
   422     0070                     ?_update:	
   423                           ; 1 bytes @ 0x0
   424                           
   425     0070                     ?_lcd_cmd:	
   426                           ; 1 bytes @ 0x0
   427                           
   428     0070                     ??_lcd_cmd:	
   429                           ; 1 bytes @ 0x0
   430                           
   431     0070                     ?_lcd_data:	
   432                           ; 1 bytes @ 0x0
   433                           
   434     0070                     ??_lcd_data:	
   435                           ; 1 bytes @ 0x0
   436                           
   437     0070                     ?_main:	
   438                           ; 1 bytes @ 0x0
   439                           
   440     0070                     ?_i2c_wait:	
   441                           ; 1 bytes @ 0x0
   442                           
   443     0070                     ??_i2c_wait:	
   444                           ; 1 bytes @ 0x0
   445                           
   446     0070                     ?_i2c_start:	
   447                           ; 1 bytes @ 0x0
   448                           
   449     0070                     ??_i2c_start:	
   450                           ; 1 bytes @ 0x0
   451                           
   452     0070                     ?_i2c_rep_start:	
   453                           ; 1 bytes @ 0x0
   454                           
   455     0070                     ??_i2c_rep_start:	
   456                           ; 1 bytes @ 0x0
   457                           
   458     0070                     ?_i2c_stop:	
   459                           ; 1 bytes @ 0x0
   460                           
   461     0070                     ??_i2c_stop:	
   462                           ; 1 bytes @ 0x0
   463                           
   464     0070                     ?_i2c_write:	
   465                           ; 1 bytes @ 0x0
   466                           
   467     0070                     ??_i2c_write:	
   468                           ; 1 bytes @ 0x0
   469                           
   470     0070                     ?_i2c_read:	
   471                           ; 1 bytes @ 0x0
   472                           
   473     0070                     ??_i2c_read:	
   474                           ; 1 bytes @ 0x0
   475                           
   476     0070                     ?_I2C_NACK:	
   477                           ; 1 bytes @ 0x0
   478                           
   479     0070                     ??_I2C_NACK:	
   480                           ; 1 bytes @ 0x0
   481                           
   482     0070                     ?___wmul:	
   483                           ; 1 bytes @ 0x0
   484                           
   485     0070                     ?___awdiv:	
   486                           ; 2 bytes @ 0x0
   487                           
   488     0070                     ?___awmod:	
   489                           ; 2 bytes @ 0x0
   490                           
   491     0070                     ?___lldiv:	
   492                           ; 2 bytes @ 0x0
   493                           
   494     0070                     i2c_write@data:	
   495                           ; 4 bytes @ 0x0
   496                           
   497     0070                     ___wmul@multiplier:	
   498                           ; 1 bytes @ 0x0
   499                           
   500     0070                     ___awdiv@divisor:	
   501                           ; 2 bytes @ 0x0
   502                           
   503     0070                     ___awmod@divisor:	
   504                           ; 2 bytes @ 0x0
   505                           
   506     0070                     ___lldiv@divisor:	
   507                           ; 2 bytes @ 0x0
   508                           
   509                           
   510                           ; 4 bytes @ 0x0
   511     0070                     	ds	1
   512     0071                     ?_EEPROM_Write:
   513     0071                     ?_EEPROM_Read:	
   514                           ; 1 bytes @ 0x1
   515                           
   516     0071                     EEPROM_Write@add:	
   517                           ; 1 bytes @ 0x1
   518                           
   519     0071                     EEPROM_Read@add:	
   520                           ; 2 bytes @ 0x1
   521                           
   522                           
   523                           ; 2 bytes @ 0x1
   524     0071                     	ds	1
   525     0072                     lcd_cmd@i:
   526     0072                     lcd_data@i:	
   527                           ; 1 bytes @ 0x2
   528                           
   529     0072                     ___wmul@multiplicand:	
   530                           ; 1 bytes @ 0x2
   531                           
   532     0072                     ___awdiv@dividend:	
   533                           ; 2 bytes @ 0x2
   534                           
   535     0072                     ___awmod@dividend:	
   536                           ; 2 bytes @ 0x2
   537                           
   538                           
   539                           ; 2 bytes @ 0x2
   540     0072                     	ds	1
   541     0073                     ??_init:
   542     0073                     ??_EEPROM_Read:	
   543                           ; 1 bytes @ 0x3
   544                           
   545     0073                     ?_days:	
   546                           ; 1 bytes @ 0x3
   547                           
   548     0073                     EEPROM_Write@data:	
   549                           ; 1 bytes @ 0x3
   550                           
   551     0073                     days@day:	
   552                           ; 1 bytes @ 0x3
   553                           
   554                           
   555                           ; 2 bytes @ 0x3
   556     0073                     	ds	1
   557     0074                     ??_EEPROM_Write:
   558     0074                     ??___wmul:	
   559                           ; 1 bytes @ 0x4
   560                           
   561     0074                     ??___awdiv:	
   562                           ; 1 bytes @ 0x4
   563                           
   564     0074                     ??___awmod:	
   565                           ; 1 bytes @ 0x4
   566                           
   567     0074                     ___awdiv@counter:	
   568                           ; 1 bytes @ 0x4
   569                           
   570     0074                     ___awmod@counter:	
   571                           ; 1 bytes @ 0x4
   572                           
   573     0074                     ___wmul@product:	
   574                           ; 1 bytes @ 0x4
   575                           
   576     0074                     ___lldiv@dividend:	
   577                           ; 2 bytes @ 0x4
   578                           
   579                           
   580                           ; 4 bytes @ 0x4
   581     0074                     	ds	1
   582     0075                     ??_days:
   583     0075                     ___awdiv@sign:	
   584                           ; 1 bytes @ 0x5
   585                           
   586     0075                     ___awmod@sign:	
   587                           ; 1 bytes @ 0x5
   588                           
   589                           
   590                           ; 1 bytes @ 0x5
   591     0075                     	ds	1
   592     0076                     ?_bcd2dec:
   593     0076                     bcd2dec@temp:	
   594                           ; 2 bytes @ 0x6
   595                           
   596     0076                     ___awdiv@quotient:	
   597                           ; 2 bytes @ 0x6
   598                           
   599                           
   600                           ; 2 bytes @ 0x6
   601     0076                     	ds	2
   602     0078                     ??_bcd2dec:
   603     0078                     ??___lldiv:	
   604                           ; 1 bytes @ 0x8
   605                           
   606     0078                     ?_dec2bcd:	
   607                           ; 1 bytes @ 0x8
   608                           
   609     0078                     dec2bcd@temp:	
   610                           ; 2 bytes @ 0x8
   611                           
   612                           
   613                           ; 2 bytes @ 0x8
   614     0078                     	ds	1
   615     0079                     ___lldiv@quotient:
   616                           
   617                           ; 4 bytes @ 0x9
   618     0079                     	ds	1
   619     007A                     ??_update:
   620     007A                     ??_dec2bcd:	
   621                           ; 1 bytes @ 0xA
   622                           
   623                           
   624                           ; 1 bytes @ 0xA
   625     007A                     	ds	2
   626     007C                     ??_setup:
   627                           
   628                           ; 1 bytes @ 0xC
   629     007C                     	ds	1
   630     007D                     ___lldiv@counter:
   631                           
   632                           ; 1 bytes @ 0xD
   633     007D                     	ds	1
   634                           
   635                           	psect	cstackBANK0
   636     0040                     __pcstackBANK0:
   637     0040                     ?_i2c_init:
   638     0040                     i2c_init@baud:	
   639                           ; 1 bytes @ 0x0
   640                           
   641                           
   642                           ; 4 bytes @ 0x0
   643     0040                     	ds	4
   644     0044                     ??_i2c_init:
   645                           
   646                           ; 1 bytes @ 0x4
   647     0044                     	ds	4
   648     0048                     ??_main:
   649                           
   650                           ; 1 bytes @ 0x8
   651     0048                     	ds	3
   652     004B                     main@Data1:
   653                           
   654                           ; 1 bytes @ 0xB
   655     004B                     	ds	1
   656     004C                     main@Data2:
   657                           
   658                           ; 1 bytes @ 0xC
   659     004C                     	ds	1
   660     004D                     main@Data3:
   661                           
   662                           ; 1 bytes @ 0xD
   663     004D                     	ds	1
   664     004E                     main@Add2:
   665                           
   666                           ; 2 bytes @ 0xE
   667     004E                     	ds	2
   668     0050                     main@Add3:
   669                           
   670                           ; 2 bytes @ 0x10
   671     0050                     	ds	2
   672                           
   673                           	psect	maintext
   674     051A                     __pmaintext:	
   675 ;;
   676 ;;Main: autosize = 0, tempsize = 3, incstack = 0, save=0
   677 ;;
   678 ;; *************** function _main *****************
   679 ;; Defined at:
   680 ;;		line 3 in file "RTC_EEPROM_main.c"
   681 ;; Parameters:    Size  Location     Type
   682 ;;		None
   683 ;; Auto vars:     Size  Location     Type
   684 ;;  Add3            2   16[BANK0 ] unsigned int 
   685 ;;  Add2            2   14[BANK0 ] unsigned int 
   686 ;;  Add1            2    0        unsigned int 
   687 ;;  Data3           1   13[BANK0 ] unsigned char 
   688 ;;  Data2           1   12[BANK0 ] unsigned char 
   689 ;;  Data1           1   11[BANK0 ] unsigned char 
   690 ;; Return value:  Size  Location     Type
   691 ;;                  1    wreg      void 
   692 ;; Registers used:
   693 ;;		wreg, fsr0l, fsr0h, status,2, status,0, btemp+1, pclath, cstack
   694 ;; Tracked objects:
   695 ;;		On entry : B00/0
   696 ;;		On exit  : 0/0
   697 ;;		Unchanged: 0/0
   698 ;; Data sizes:     COMMON   BANK0   BANK1   BANK3   BANK2
   699 ;;      Params:         0       0       0       0       0
   700 ;;      Locals:         0       7       0       0       0
   701 ;;      Temps:          0       3       0       0       0
   702 ;;      Totals:         0      10       0       0       0
   703 ;;Total ram usage:       10 bytes
   704 ;; Hardware stack levels required when called: 3
   705 ;; This function calls:
   706 ;;		_EEPROM_Read
   707 ;;		_EEPROM_Write
   708 ;;		___awdiv
   709 ;;		___awmod
   710 ;;		_days
   711 ;;		_dec2bcd
   712 ;;		_i2c_init
   713 ;;		_init
   714 ;;		_lcd_cmd
   715 ;;		_lcd_data
   716 ;;		_setup
   717 ;;		_update
   718 ;; This function is called by:
   719 ;;		Startup code after reset
   720 ;; This function uses a non-reentrant model
   721 ;;
   722                           
   723     051A                     _main:	
   724                           ;psect for function _main
   725                           
   726     051A                     l1453:	
   727                           ;incstack = 0
   728                           ; Regs used in _main: [wreg-fsr0h+status,2+status,0+btemp+1+pclath+cstack]
   729                           
   730     051A  3028               	movlw	40
   731     051B  1283               	bcf	3,5	;RP0=0, select bank0
   732     051C  1303               	bcf	3,6	;RP1=0, select bank0
   733     051D  00CE               	movwf	main@Add2
   734     051E  3000               	movlw	0
   735     051F  00CF               	movwf	main@Add2+1
   736     0520  3037               	movlw	55
   737     0521  00D0               	movwf	main@Add3
   738     0522  3000               	movlw	0
   739     0523  00D1               	movwf	main@Add3+1
   740                           
   741                           ;RTC_EEPROM_main.c: 5:     unsigned char Data1 = 0x05, Data2 = '2', Data3 = 'c';
   742     0524  3005               	movlw	5
   743     0525  00CB               	movwf	main@Data1
   744     0526  3032               	movlw	50
   745     0527  00CC               	movwf	main@Data2
   746     0528  3063               	movlw	99
   747     0529  00CD               	movwf	main@Data3
   748     052A                     l1455:
   749                           
   750                           ;RTC_EEPROM_main.c: 6:     i2c_init(10000);
   751     052A  3000               	movlw	0
   752     052B  00C3               	movwf	i2c_init@baud+3
   753     052C  3000               	movlw	0
   754     052D  00C2               	movwf	i2c_init@baud+2
   755     052E  3027               	movlw	39
   756     052F  00C1               	movwf	i2c_init@baud+1
   757     0530  3010               	movlw	16
   758     0531  00C0               	movwf	i2c_init@baud
   759     0532  120A  118A  20D9  120A  118A  	fcall	_i2c_init
   760     0537                     l1457:
   761                           
   762                           ;RTC_EEPROM_main.c: 7:     init();
   763     0537  120A  118A  2274  120A  118A  	fcall	_init
   764     053C                     l1459:
   765                           
   766                           ;RTC_EEPROM_main.c: 8:     setup();
   767     053C  120A  118A  22E8  120A  118A  	fcall	_setup
   768     0541                     l1461:
   769                           
   770                           ;RTC_EEPROM_main.c: 9:     EEPROM_Write(Add1, Data1);
   771     0541  3020               	movlw	32
   772     0542  00F1               	movwf	EEPROM_Write@add
   773     0543  3000               	movlw	0
   774     0544  00F2               	movwf	EEPROM_Write@add+1
   775     0545  3005               	movlw	5
   776     0546  00F3               	movwf	EEPROM_Write@data
   777     0547  120A  118A  207B  120A  118A  	fcall	_EEPROM_Write
   778                           
   779                           ;RTC_EEPROM_main.c: 10:     _delay((unsigned long)((100)*(16000000/4000.0)));
   780     054C  3003               	movlw	3
   781     054D  1283               	bcf	3,5	;RP0=0, select bank0
   782     054E  1303               	bcf	3,6	;RP1=0, select bank0
   783     054F  00CA               	movwf	??_main+2
   784     0550  3008               	movlw	8
   785     0551  00C9               	movwf	??_main+1
   786     0552  3076               	movlw	118
   787     0553  00C8               	movwf	??_main
   788     0554                     u897:
   789     0554  0BC8               	decfsz	??_main,f
   790     0555  2D54               	goto	u897
   791     0556  0BC9               	decfsz	??_main+1,f
   792     0557  2D54               	goto	u897
   793     0558  0BCA               	decfsz	??_main+2,f
   794     0559  2D54               	goto	u897
   795     055A  0000               	nop
   796     055B                     l1463:
   797                           
   798                           ;RTC_EEPROM_main.c: 11:     EEPROM_Write(Add2, Data2);
   799     055B  3028               	movlw	40
   800     055C  00F1               	movwf	EEPROM_Write@add
   801     055D  3000               	movlw	0
   802     055E  00F2               	movwf	EEPROM_Write@add+1
   803     055F  3032               	movlw	50
   804     0560  00F3               	movwf	EEPROM_Write@data
   805     0561  120A  118A  207B  120A  118A  	fcall	_EEPROM_Write
   806     0566                     l1465:
   807                           
   808                           ;RTC_EEPROM_main.c: 12:     _delay((unsigned long)((100)*(16000000/4000.0)));
   809     0566  3003               	movlw	3
   810     0567  1283               	bcf	3,5	;RP0=0, select bank0
   811     0568  1303               	bcf	3,6	;RP1=0, select bank0
   812     0569  00CA               	movwf	??_main+2
   813     056A  3008               	movlw	8
   814     056B  00C9               	movwf	??_main+1
   815     056C  3076               	movlw	118
   816     056D  00C8               	movwf	??_main
   817     056E                     u907:
   818     056E  0BC8               	decfsz	??_main,f
   819     056F  2D6E               	goto	u907
   820     0570  0BC9               	decfsz	??_main+1,f
   821     0571  2D6E               	goto	u907
   822     0572  0BCA               	decfsz	??_main+2,f
   823     0573  2D6E               	goto	u907
   824     0574  0000               	nop
   825                           
   826                           ;RTC_EEPROM_main.c: 13:     EEPROM_Write(Add3, Data3);
   827     0575  3037               	movlw	55
   828     0576  00F1               	movwf	EEPROM_Write@add
   829     0577  3000               	movlw	0
   830     0578  00F2               	movwf	EEPROM_Write@add+1
   831     0579  3063               	movlw	99
   832     057A  00F3               	movwf	EEPROM_Write@data
   833     057B  120A  118A  207B  120A  118A  	fcall	_EEPROM_Write
   834     0580                     l1467:
   835                           
   836                           ;RTC_EEPROM_main.c: 14:     _delay((unsigned long)((100)*(16000000/4000.0)));
   837     0580  3003               	movlw	3
   838     0581  1283               	bcf	3,5	;RP0=0, select bank0
   839     0582  1303               	bcf	3,6	;RP1=0, select bank0
   840     0583  00CA               	movwf	??_main+2
   841     0584  3008               	movlw	8
   842     0585  00C9               	movwf	??_main+1
   843     0586  3076               	movlw	118
   844     0587  00C8               	movwf	??_main
   845     0588                     u917:
   846     0588  0BC8               	decfsz	??_main,f
   847     0589  2D88               	goto	u917
   848     058A  0BC9               	decfsz	??_main+1,f
   849     058B  2D88               	goto	u917
   850     058C  0BCA               	decfsz	??_main+2,f
   851     058D  2D88               	goto	u917
   852     058E  0000               	nop
   853     058F                     l1469:
   854                           
   855                           ;RTC_EEPROM_main.c: 15:     EEPROM_Read(Add1);
   856     058F  3020               	movlw	32
   857     0590  00F1               	movwf	EEPROM_Read@add
   858     0591  3000               	movlw	0
   859     0592  00F2               	movwf	EEPROM_Read@add+1
   860     0593  120A  118A  2111  120A  118A  	fcall	_EEPROM_Read
   861     0598                     l1471:
   862                           
   863                           ;RTC_EEPROM_main.c: 16:     EEPROM_Read(Add2);
   864     0598  3028               	movlw	40
   865     0599  00F1               	movwf	EEPROM_Read@add
   866     059A  3000               	movlw	0
   867     059B  00F2               	movwf	EEPROM_Read@add+1
   868     059C  120A  118A  2111  120A  118A  	fcall	_EEPROM_Read
   869     05A1                     l1473:
   870                           
   871                           ;RTC_EEPROM_main.c: 17:     EEPROM_Read(Add3);
   872     05A1  3037               	movlw	55
   873     05A2  00F1               	movwf	EEPROM_Read@add
   874     05A3  3000               	movlw	0
   875     05A4  00F2               	movwf	EEPROM_Read@add+1
   876     05A5  120A  118A  2111  120A  118A  	fcall	_EEPROM_Read
   877     05AA                     l1475:
   878                           
   879                           ;RTC_EEPROM_main.c: 19:         update();
   880     05AA  120A  118A  2444  120A  118A  	fcall	_update
   881     05AF                     l1477:
   882                           
   883                           ;RTC_EEPROM_main.c: 20:         hour1=(dec2bcd(hour)&0x1F)-6;
   884     05AF  1283               	bcf	3,5	;RP0=0, select bank0
   885     05B0  1303               	bcf	3,6	;RP1=0, select bank0
   886     05B1  083B               	movf	_hour+1,w
   887     05B2  00F9               	movwf	dec2bcd@temp+1
   888     05B3  083A               	movf	_hour,w
   889     05B4  00F8               	movwf	dec2bcd@temp
   890     05B5  120A  118A  20A9  120A  118A  	fcall	_dec2bcd
   891     05BA  301F               	movlw	31
   892     05BB  0578               	andwf	?_dec2bcd,w
   893     05BC  1283               	bcf	3,5	;RP0=0, select bank0
   894     05BD  1303               	bcf	3,6	;RP1=0, select bank0
   895     05BE  00C8               	movwf	??_main
   896     05BF  3000               	movlw	0
   897     05C0  0579               	andwf	?_dec2bcd+1,w
   898     05C1  00C9               	movwf	??_main+1
   899     05C2  0848               	movf	??_main,w
   900     05C3  3EFA               	addlw	250
   901     05C4  00D2               	movwf	_hour1
   902     05C5  0849               	movf	??_main+1,w
   903     05C6  1803               	skipnc
   904     05C7  3E01               	addlw	1
   905     05C8  3EFF               	addlw	255
   906     05C9  00D3               	movwf	_hour1+1
   907     05CA                     l1479:
   908                           
   909                           ;RTC_EEPROM_main.c: 21:         lcd_cmd(0x80);
   910     05CA  3080               	movlw	128
   911     05CB  120A  158A  27C0  120A  118A  	fcall	_lcd_cmd
   912     05D0                     l1481:
   913                           
   914                           ;RTC_EEPROM_main.c: 22:         for(i=0; i<4; i++)
   915     05D0  1283               	bcf	3,5	;RP0=0, select bank0
   916     05D1  1303               	bcf	3,6	;RP1=0, select bank0
   917     05D2  01D4               	clrf	_i
   918     05D3  01D5               	clrf	_i+1
   919     05D4                     l1487:
   920                           
   921                           ;RTC_EEPROM_main.c: 23:             lcd_data(msg1[i]);
   922     05D4  1283               	bcf	3,5	;RP0=0, select bank0
   923     05D5  1303               	bcf	3,6	;RP1=0, select bank0
   924     05D6  0854               	movf	_i,w
   925     05D7  3E25               	addlw	(low (_msg1| 0))& (0+255)
   926     05D8  0084               	movwf	4
   927     05D9  1383               	bcf	3,7	;select IRP bank0
   928     05DA  0800               	movf	0,w
   929     05DB  120A  158A  27AC  120A  118A  	fcall	_lcd_data
   930     05E0                     l1489:
   931     05E0  3001               	movlw	1
   932     05E1  1283               	bcf	3,5	;RP0=0, select bank0
   933     05E2  1303               	bcf	3,6	;RP1=0, select bank0
   934     05E3  07D4               	addwf	_i,f
   935     05E4  1803               	skipnc
   936     05E5  0AD5               	incf	_i+1,f
   937     05E6  3000               	movlw	0
   938     05E7  07D5               	addwf	_i+1,f
   939     05E8                     l1491:
   940     05E8  0855               	movf	_i+1,w
   941     05E9  3A80               	xorlw	128
   942     05EA  00FF               	movwf	btemp+1
   943     05EB  3080               	movlw	128
   944     05EC  027F               	subwf	btemp+1,w
   945     05ED  1D03               	skipz
   946     05EE  2DF1               	goto	u825
   947     05EF  3004               	movlw	4
   948     05F0  0254               	subwf	_i,w
   949     05F1                     u825:
   950     05F1  1C03               	skipc
   951     05F2  2DF4               	goto	u821
   952     05F3  2DF5               	goto	u820
   953     05F4                     u821:
   954     05F4  2DD4               	goto	l1487
   955     05F5                     u820:
   956     05F5                     l1493:
   957                           
   958                           ;RTC_EEPROM_main.c: 24:         lcd_data(hour1/10+'0');
   959     05F5  300A               	movlw	10
   960     05F6  00F0               	movwf	___awdiv@divisor
   961     05F7  3000               	movlw	0
   962     05F8  00F1               	movwf	___awdiv@divisor+1
   963     05F9  1283               	bcf	3,5	;RP0=0, select bank0
   964     05FA  1303               	bcf	3,6	;RP1=0, select bank0
   965     05FB  0853               	movf	_hour1+1,w
   966     05FC  00F3               	movwf	___awdiv@dividend+1
   967     05FD  0852               	movf	_hour1,w
   968     05FE  00F2               	movwf	___awdiv@dividend
   969     05FF  120A  118A  220D  120A  118A  	fcall	___awdiv
   970     0604  0870               	movf	?___awdiv,w
   971     0605  3E30               	addlw	48
   972     0606  120A  158A  27AC  120A  118A  	fcall	_lcd_data
   973                           
   974                           ;RTC_EEPROM_main.c: 25:         lcd_data(hour1%10+'0');
   975     060B  300A               	movlw	10
   976     060C  00F0               	movwf	___awmod@divisor
   977     060D  3000               	movlw	0
   978     060E  00F1               	movwf	___awmod@divisor+1
   979     060F  1283               	bcf	3,5	;RP0=0, select bank0
   980     0610  1303               	bcf	3,6	;RP1=0, select bank0
   981     0611  0853               	movf	_hour1+1,w
   982     0612  00F3               	movwf	___awmod@dividend+1
   983     0613  0852               	movf	_hour1,w
   984     0614  00F2               	movwf	___awmod@dividend
   985     0615  120A  118A  214E  120A  118A  	fcall	___awmod
   986     061A  0870               	movf	?___awmod,w
   987     061B  3E30               	addlw	48
   988     061C  120A  158A  27AC  120A  118A  	fcall	_lcd_data
   989     0621                     l1495:
   990                           
   991                           ;RTC_EEPROM_main.c: 26:         lcd_data('-');
   992     0621  302D               	movlw	45
   993     0622  120A  158A  27AC  120A  118A  	fcall	_lcd_data
   994     0627                     l1497:
   995                           
   996                           ;RTC_EEPROM_main.c: 27:         lcd_data(min/10+'0');
   997     0627  300A               	movlw	10
   998     0628  00F0               	movwf	___awdiv@divisor
   999     0629  3000               	movlw	0
  1000     062A  00F1               	movwf	___awdiv@divisor+1
  1001     062B  1283               	bcf	3,5	;RP0=0, select bank0
  1002     062C  1303               	bcf	3,6	;RP1=0, select bank0
  1003     062D  083D               	movf	_min+1,w
  1004     062E  00F3               	movwf	___awdiv@dividend+1
  1005     062F  083C               	movf	_min,w
  1006     0630  00F2               	movwf	___awdiv@dividend
  1007     0631  120A  118A  220D  120A  118A  	fcall	___awdiv
  1008     0636  0870               	movf	?___awdiv,w
  1009     0637  3E30               	addlw	48
  1010     0638  120A  158A  27AC  120A  118A  	fcall	_lcd_data
  1011     063D                     l1499:
  1012                           
  1013                           ;RTC_EEPROM_main.c: 28:         lcd_data(min%10+'0');
  1014     063D  300A               	movlw	10
  1015     063E  00F0               	movwf	___awmod@divisor
  1016     063F  3000               	movlw	0
  1017     0640  00F1               	movwf	___awmod@divisor+1
  1018     0641  1283               	bcf	3,5	;RP0=0, select bank0
  1019     0642  1303               	bcf	3,6	;RP1=0, select bank0
  1020     0643  083D               	movf	_min+1,w
  1021     0644  00F3               	movwf	___awmod@dividend+1
  1022     0645  083C               	movf	_min,w
  1023     0646  00F2               	movwf	___awmod@dividend
  1024     0647  120A  118A  214E  120A  118A  	fcall	___awmod
  1025     064C  0870               	movf	?___awmod,w
  1026     064D  3E30               	addlw	48
  1027     064E  120A  158A  27AC  120A  118A  	fcall	_lcd_data
  1028     0653                     l1501:
  1029                           
  1030                           ;RTC_EEPROM_main.c: 29:         lcd_data('-');
  1031     0653  302D               	movlw	45
  1032     0654  120A  158A  27AC  120A  118A  	fcall	_lcd_data
  1033                           
  1034                           ;RTC_EEPROM_main.c: 30:         lcd_data(sec/10+'0');
  1035     0659  300A               	movlw	10
  1036     065A  00F0               	movwf	___awdiv@divisor
  1037     065B  3000               	movlw	0
  1038     065C  00F1               	movwf	___awdiv@divisor+1
  1039     065D  1283               	bcf	3,5	;RP0=0, select bank0
  1040     065E  1303               	bcf	3,6	;RP1=0, select bank0
  1041     065F  083F               	movf	_sec+1,w
  1042     0660  00F3               	movwf	___awdiv@dividend+1
  1043     0661  083E               	movf	_sec,w
  1044     0662  00F2               	movwf	___awdiv@dividend
  1045     0663  120A  118A  220D  120A  118A  	fcall	___awdiv
  1046     0668  0870               	movf	?___awdiv,w
  1047     0669  3E30               	addlw	48
  1048     066A  120A  158A  27AC  120A  118A  	fcall	_lcd_data
  1049                           
  1050                           ;RTC_EEPROM_main.c: 31:         lcd_data(sec%10+'0');
  1051     066F  300A               	movlw	10
  1052     0670  00F0               	movwf	___awmod@divisor
  1053     0671  3000               	movlw	0
  1054     0672  00F1               	movwf	___awmod@divisor+1
  1055     0673  1283               	bcf	3,5	;RP0=0, select bank0
  1056     0674  1303               	bcf	3,6	;RP1=0, select bank0
  1057     0675  083F               	movf	_sec+1,w
  1058     0676  00F3               	movwf	___awmod@dividend+1
  1059     0677  083E               	movf	_sec,w
  1060     0678  00F2               	movwf	___awmod@dividend
  1061     0679  120A  118A  214E  120A  118A  	fcall	___awmod
  1062     067E  0870               	movf	?___awmod,w
  1063     067F  3E30               	addlw	48
  1064     0680  120A  158A  27AC  120A  118A  	fcall	_lcd_data
  1065                           
  1066                           ;RTC_EEPROM_main.c: 32:         if(!(dec2bcd(hour)&0x20))
  1067     0685  1283               	bcf	3,5	;RP0=0, select bank0
  1068     0686  1303               	bcf	3,6	;RP1=0, select bank0
  1069     0687  083B               	movf	_hour+1,w
  1070     0688  00F9               	movwf	dec2bcd@temp+1
  1071     0689  083A               	movf	_hour,w
  1072     068A  00F8               	movwf	dec2bcd@temp
  1073     068B  120A  118A  20A9  120A  118A  	fcall	_dec2bcd
  1074     0690  1AF8               	btfsc	?_dec2bcd,5
  1075     0691  2E93               	goto	u831
  1076     0692  2E94               	goto	u830
  1077     0693                     u831:
  1078     0693  2EBA               	goto	l1515
  1079     0694                     u830:
  1080     0694                     l1503:
  1081                           
  1082                           ;RTC_EEPROM_main.c: 33:             for(i=0; i<3; i++)
  1083     0694  1283               	bcf	3,5	;RP0=0, select bank0
  1084     0695  1303               	bcf	3,6	;RP1=0, select bank0
  1085     0696  01D4               	clrf	_i
  1086     0697  01D5               	clrf	_i+1
  1087     0698                     l1509:
  1088                           
  1089                           ;RTC_EEPROM_main.c: 34:                 lcd_data(mode1[i]);
  1090     0698  1283               	bcf	3,5	;RP0=0, select bank0
  1091     0699  1303               	bcf	3,6	;RP1=0, select bank0
  1092     069A  0854               	movf	_i,w
  1093     069B  3E2E               	addlw	(low (_mode1| 0))& (0+255)
  1094     069C  0084               	movwf	4
  1095     069D  1383               	bcf	3,7	;select IRP bank0
  1096     069E  0800               	movf	0,w
  1097     069F  120A  158A  27AC  120A  118A  	fcall	_lcd_data
  1098     06A4                     l1511:
  1099     06A4  3001               	movlw	1
  1100     06A5  1283               	bcf	3,5	;RP0=0, select bank0
  1101     06A6  1303               	bcf	3,6	;RP1=0, select bank0
  1102     06A7  07D4               	addwf	_i,f
  1103     06A8  1803               	skipnc
  1104     06A9  0AD5               	incf	_i+1,f
  1105     06AA  3000               	movlw	0
  1106     06AB  07D5               	addwf	_i+1,f
  1107     06AC                     l1513:
  1108     06AC  0855               	movf	_i+1,w
  1109     06AD  3A80               	xorlw	128
  1110     06AE  00FF               	movwf	btemp+1
  1111     06AF  3080               	movlw	128
  1112     06B0  027F               	subwf	btemp+1,w
  1113     06B1  1D03               	skipz
  1114     06B2  2EB5               	goto	u845
  1115     06B3  3003               	movlw	3
  1116     06B4  0254               	subwf	_i,w
  1117     06B5                     u845:
  1118     06B5  1C03               	skipc
  1119     06B6  2EB8               	goto	u841
  1120     06B7  2EB9               	goto	u840
  1121     06B8                     u841:
  1122     06B8  2E98               	goto	l1509
  1123     06B9                     u840:
  1124     06B9  2EDF               	goto	l1527
  1125     06BA                     l1515:
  1126                           
  1127                           ;RTC_EEPROM_main.c: 36:             for(i=0; i<3; i++)
  1128     06BA  1283               	bcf	3,5	;RP0=0, select bank0
  1129     06BB  1303               	bcf	3,6	;RP1=0, select bank0
  1130     06BC  01D4               	clrf	_i
  1131     06BD  01D5               	clrf	_i+1
  1132     06BE                     l1521:
  1133                           
  1134                           ;RTC_EEPROM_main.c: 37:                 lcd_data(mode2[i]);
  1135     06BE  1283               	bcf	3,5	;RP0=0, select bank0
  1136     06BF  1303               	bcf	3,6	;RP1=0, select bank0
  1137     06C0  0854               	movf	_i,w
  1138     06C1  3E2A               	addlw	(low (_mode2| 0))& (0+255)
  1139     06C2  0084               	movwf	4
  1140     06C3  1383               	bcf	3,7	;select IRP bank0
  1141     06C4  0800               	movf	0,w
  1142     06C5  120A  158A  27AC  120A  118A  	fcall	_lcd_data
  1143     06CA                     l1523:
  1144     06CA  3001               	movlw	1
  1145     06CB  1283               	bcf	3,5	;RP0=0, select bank0
  1146     06CC  1303               	bcf	3,6	;RP1=0, select bank0
  1147     06CD  07D4               	addwf	_i,f
  1148     06CE  1803               	skipnc
  1149     06CF  0AD5               	incf	_i+1,f
  1150     06D0  3000               	movlw	0
  1151     06D1  07D5               	addwf	_i+1,f
  1152     06D2                     l1525:
  1153     06D2  0855               	movf	_i+1,w
  1154     06D3  3A80               	xorlw	128
  1155     06D4  00FF               	movwf	btemp+1
  1156     06D5  3080               	movlw	128
  1157     06D6  027F               	subwf	btemp+1,w
  1158     06D7  1D03               	skipz
  1159     06D8  2EDB               	goto	u855
  1160     06D9  3003               	movlw	3
  1161     06DA  0254               	subwf	_i,w
  1162     06DB                     u855:
  1163     06DB  1C03               	skipc
  1164     06DC  2EDE               	goto	u851
  1165     06DD  2EDF               	goto	u850
  1166     06DE                     u851:
  1167     06DE  2EBE               	goto	l1521
  1168     06DF                     u850:
  1169     06DF                     l1527:
  1170                           
  1171                           ;RTC_EEPROM_main.c: 39:         lcd_cmd(0xC0);
  1172     06DF  30C0               	movlw	192
  1173     06E0  120A  158A  27C0  120A  118A  	fcall	_lcd_cmd
  1174     06E5                     l1529:
  1175                           
  1176                           ;RTC_EEPROM_main.c: 40:         for(i=0; i<4; i++)
  1177     06E5  1283               	bcf	3,5	;RP0=0, select bank0
  1178     06E6  1303               	bcf	3,6	;RP1=0, select bank0
  1179     06E7  01D4               	clrf	_i
  1180     06E8  01D5               	clrf	_i+1
  1181     06E9                     l1535:
  1182                           
  1183                           ;RTC_EEPROM_main.c: 41:             lcd_data(msg2[i]);
  1184     06E9  1283               	bcf	3,5	;RP0=0, select bank0
  1185     06EA  1303               	bcf	3,6	;RP1=0, select bank0
  1186     06EB  0854               	movf	_i,w
  1187     06EC  3E20               	addlw	(low (_msg2| 0))& (0+255)
  1188     06ED  0084               	movwf	4
  1189     06EE  1383               	bcf	3,7	;select IRP bank0
  1190     06EF  0800               	movf	0,w
  1191     06F0  120A  158A  27AC  120A  118A  	fcall	_lcd_data
  1192     06F5                     l1537:
  1193     06F5  3001               	movlw	1
  1194     06F6  1283               	bcf	3,5	;RP0=0, select bank0
  1195     06F7  1303               	bcf	3,6	;RP1=0, select bank0
  1196     06F8  07D4               	addwf	_i,f
  1197     06F9  1803               	skipnc
  1198     06FA  0AD5               	incf	_i+1,f
  1199     06FB  3000               	movlw	0
  1200     06FC  07D5               	addwf	_i+1,f
  1201     06FD                     l1539:
  1202     06FD  0855               	movf	_i+1,w
  1203     06FE  3A80               	xorlw	128
  1204     06FF  00FF               	movwf	btemp+1
  1205     0700  3080               	movlw	128
  1206     0701  027F               	subwf	btemp+1,w
  1207     0702  1D03               	skipz
  1208     0703  2F06               	goto	u865
  1209     0704  3004               	movlw	4
  1210     0705  0254               	subwf	_i,w
  1211     0706                     u865:
  1212     0706  1C03               	skipc
  1213     0707  2F09               	goto	u861
  1214     0708  2F0A               	goto	u860
  1215     0709                     u861:
  1216     0709  2EE9               	goto	l1535
  1217     070A                     u860:
  1218     070A                     l1541:
  1219                           
  1220                           ;RTC_EEPROM_main.c: 42:         lcd_data(date/10+'0');
  1221     070A  300A               	movlw	10
  1222     070B  00F0               	movwf	___awdiv@divisor
  1223     070C  3000               	movlw	0
  1224     070D  00F1               	movwf	___awdiv@divisor+1
  1225     070E  1283               	bcf	3,5	;RP0=0, select bank0
  1226     070F  1303               	bcf	3,6	;RP1=0, select bank0
  1227     0710  0839               	movf	_date+1,w
  1228     0711  00F3               	movwf	___awdiv@dividend+1
  1229     0712  0838               	movf	_date,w
  1230     0713  00F2               	movwf	___awdiv@dividend
  1231     0714  120A  118A  220D  120A  118A  	fcall	___awdiv
  1232     0719  0870               	movf	?___awdiv,w
  1233     071A  3E30               	addlw	48
  1234     071B  120A  158A  27AC  120A  118A  	fcall	_lcd_data
  1235                           
  1236                           ;RTC_EEPROM_main.c: 43:         lcd_data(date%10+'0');
  1237     0720  300A               	movlw	10
  1238     0721  00F0               	movwf	___awmod@divisor
  1239     0722  3000               	movlw	0
  1240     0723  00F1               	movwf	___awmod@divisor+1
  1241     0724  1283               	bcf	3,5	;RP0=0, select bank0
  1242     0725  1303               	bcf	3,6	;RP1=0, select bank0
  1243     0726  0839               	movf	_date+1,w
  1244     0727  00F3               	movwf	___awmod@dividend+1
  1245     0728  0838               	movf	_date,w
  1246     0729  00F2               	movwf	___awmod@dividend
  1247     072A  120A  118A  214E  120A  118A  	fcall	___awmod
  1248     072F  0870               	movf	?___awmod,w
  1249     0730  3E30               	addlw	48
  1250     0731  120A  158A  27AC  120A  118A  	fcall	_lcd_data
  1251     0736                     l1543:
  1252                           
  1253                           ;RTC_EEPROM_main.c: 44:         lcd_data('-');
  1254     0736  302D               	movlw	45
  1255     0737  120A  158A  27AC  120A  118A  	fcall	_lcd_data
  1256     073C                     l1545:
  1257                           
  1258                           ;RTC_EEPROM_main.c: 45:         lcd_data(month/10+'0');
  1259     073C  300A               	movlw	10
  1260     073D  00F0               	movwf	___awdiv@divisor
  1261     073E  3000               	movlw	0
  1262     073F  00F1               	movwf	___awdiv@divisor+1
  1263     0740  1283               	bcf	3,5	;RP0=0, select bank0
  1264     0741  1303               	bcf	3,6	;RP1=0, select bank0
  1265     0742  0837               	movf	_month+1,w
  1266     0743  00F3               	movwf	___awdiv@dividend+1
  1267     0744  0836               	movf	_month,w
  1268     0745  00F2               	movwf	___awdiv@dividend
  1269     0746  120A  118A  220D  120A  118A  	fcall	___awdiv
  1270     074B  0870               	movf	?___awdiv,w
  1271     074C  3E30               	addlw	48
  1272     074D  120A  158A  27AC  120A  118A  	fcall	_lcd_data
  1273     0752                     l1547:
  1274                           
  1275                           ;RTC_EEPROM_main.c: 46:         lcd_data(month%10+'0');
  1276     0752  300A               	movlw	10
  1277     0753  00F0               	movwf	___awmod@divisor
  1278     0754  3000               	movlw	0
  1279     0755  00F1               	movwf	___awmod@divisor+1
  1280     0756  1283               	bcf	3,5	;RP0=0, select bank0
  1281     0757  1303               	bcf	3,6	;RP1=0, select bank0
  1282     0758  0837               	movf	_month+1,w
  1283     0759  00F3               	movwf	___awmod@dividend+1
  1284     075A  0836               	movf	_month,w
  1285     075B  00F2               	movwf	___awmod@dividend
  1286     075C  120A  118A  214E  120A  118A  	fcall	___awmod
  1287     0761  0870               	movf	?___awmod,w
  1288     0762  3E30               	addlw	48
  1289     0763  120A  158A  27AC  120A  118A  	fcall	_lcd_data
  1290     0768                     l1549:
  1291                           
  1292                           ;RTC_EEPROM_main.c: 47:         lcd_data('-');
  1293     0768  302D               	movlw	45
  1294     0769  120A  158A  27AC  120A  118A  	fcall	_lcd_data
  1295                           
  1296                           ;RTC_EEPROM_main.c: 48:         lcd_data(year/10+'0');
  1297     076E  300A               	movlw	10
  1298     076F  00F0               	movwf	___awdiv@divisor
  1299     0770  3000               	movlw	0
  1300     0771  00F1               	movwf	___awdiv@divisor+1
  1301     0772  1283               	bcf	3,5	;RP0=0, select bank0
  1302     0773  1303               	bcf	3,6	;RP1=0, select bank0
  1303     0774  0833               	movf	_year+1,w
  1304     0775  00F3               	movwf	___awdiv@dividend+1
  1305     0776  0832               	movf	_year,w
  1306     0777  00F2               	movwf	___awdiv@dividend
  1307     0778  120A  118A  220D  120A  118A  	fcall	___awdiv
  1308     077D  0870               	movf	?___awdiv,w
  1309     077E  3E30               	addlw	48
  1310     077F  120A  158A  27AC  120A  118A  	fcall	_lcd_data
  1311                           
  1312                           ;RTC_EEPROM_main.c: 49:         lcd_data(year%10+'0');
  1313     0784  300A               	movlw	10
  1314     0785  00F0               	movwf	___awmod@divisor
  1315     0786  3000               	movlw	0
  1316     0787  00F1               	movwf	___awmod@divisor+1
  1317     0788  1283               	bcf	3,5	;RP0=0, select bank0
  1318     0789  1303               	bcf	3,6	;RP1=0, select bank0
  1319     078A  0833               	movf	_year+1,w
  1320     078B  00F3               	movwf	___awmod@dividend+1
  1321     078C  0832               	movf	_year,w
  1322     078D  00F2               	movwf	___awmod@dividend
  1323     078E  120A  118A  214E  120A  118A  	fcall	___awmod
  1324     0793  0870               	movf	?___awmod,w
  1325     0794  3E30               	addlw	48
  1326     0795  120A  158A  27AC  120A  118A  	fcall	_lcd_data
  1327                           
  1328                           ;RTC_EEPROM_main.c: 50:         if(dec2bcd(hour)&0x52) {
  1329     079A  1283               	bcf	3,5	;RP0=0, select bank0
  1330     079B  1303               	bcf	3,6	;RP1=0, select bank0
  1331     079C  083B               	movf	_hour+1,w
  1332     079D  00F9               	movwf	dec2bcd@temp+1
  1333     079E  083A               	movf	_hour,w
  1334     079F  00F8               	movwf	dec2bcd@temp
  1335     07A0  120A  118A  20A9  120A  118A  	fcall	_dec2bcd
  1336     07A5  3052               	movlw	82
  1337     07A6  0578               	andwf	?_dec2bcd,w
  1338     07A7  1283               	bcf	3,5	;RP0=0, select bank0
  1339     07A8  1303               	bcf	3,6	;RP1=0, select bank0
  1340     07A9  00C8               	movwf	??_main
  1341     07AA  3000               	movlw	0
  1342     07AB  0579               	andwf	?_dec2bcd+1,w
  1343     07AC  00C9               	movwf	??_main+1
  1344     07AD  0848               	movf	??_main,w
  1345     07AE  0449               	iorwf	??_main+1,w
  1346     07AF  1903               	btfsc	3,2
  1347     07B0  2FB2               	goto	u871
  1348     07B1  2FB3               	goto	u870
  1349     07B2                     u871:
  1350     07B2  2FCC               	goto	l1557
  1351     07B3                     u870:
  1352     07B3                     l1551:
  1353                           
  1354                           ;RTC_EEPROM_main.c: 51:             day++;
  1355     07B3  3001               	movlw	1
  1356     07B4  07B4               	addwf	_day,f
  1357     07B5  1803               	skipnc
  1358     07B6  0AB5               	incf	_day+1,f
  1359     07B7  3000               	movlw	0
  1360     07B8  07B5               	addwf	_day+1,f
  1361     07B9                     l1553:
  1362                           
  1363                           ;RTC_EEPROM_main.c: 52:             if(day>7)
  1364     07B9  0835               	movf	_day+1,w
  1365     07BA  3A80               	xorlw	128
  1366     07BB  00FF               	movwf	btemp+1
  1367     07BC  3080               	movlw	128
  1368     07BD  027F               	subwf	btemp+1,w
  1369     07BE  1D03               	skipz
  1370     07BF  2FC2               	goto	u885
  1371     07C0  3008               	movlw	8
  1372     07C1  0234               	subwf	_day,w
  1373     07C2                     u885:
  1374     07C2  1C03               	skipc
  1375     07C3  2FC5               	goto	u881
  1376     07C4  2FC6               	goto	u880
  1377     07C5                     u881:
  1378     07C5  2FCC               	goto	l1557
  1379     07C6                     u880:
  1380     07C6                     l1555:
  1381                           
  1382                           ;RTC_EEPROM_main.c: 53:                 day=1;
  1383     07C6  3001               	movlw	1
  1384     07C7  1283               	bcf	3,5	;RP0=0, select bank0
  1385     07C8  1303               	bcf	3,6	;RP1=0, select bank0
  1386     07C9  00B4               	movwf	_day
  1387     07CA  3000               	movlw	0
  1388     07CB  00B5               	movwf	_day+1
  1389     07CC                     l1557:
  1390                           
  1391                           ;RTC_EEPROM_main.c: 55:         days(day);
  1392     07CC  1283               	bcf	3,5	;RP0=0, select bank0
  1393     07CD  1303               	bcf	3,6	;RP1=0, select bank0
  1394     07CE  0835               	movf	_day+1,w
  1395     07CF  00F4               	movwf	days@day+1
  1396     07D0  0834               	movf	_day,w
  1397     07D1  00F3               	movwf	days@day
  1398     07D2  120A  118A  2377  120A  118A  	fcall	_days
  1399     07D7                     l1559:
  1400                           
  1401                           ;RTC_EEPROM_main.c: 56:         _delay((unsigned long)((100)*(16000000/4000.0)));
  1402     07D7  3003               	movlw	3
  1403     07D8  1283               	bcf	3,5	;RP0=0, select bank0
  1404     07D9  1303               	bcf	3,6	;RP1=0, select bank0
  1405     07DA  00CA               	movwf	??_main+2
  1406     07DB  3008               	movlw	8
  1407     07DC  00C9               	movwf	??_main+1
  1408     07DD  3076               	movlw	118
  1409     07DE  00C8               	movwf	??_main
  1410     07DF                     u927:
  1411     07DF  0BC8               	decfsz	??_main,f
  1412     07E0  2FDF               	goto	u927
  1413     07E1  0BC9               	decfsz	??_main+1,f
  1414     07E2  2FDF               	goto	u927
  1415     07E3  0BCA               	decfsz	??_main+2,f
  1416     07E4  2FDF               	goto	u927
  1417     07E5  0000               	nop
  1418     07E6  2DAA               	goto	l1475
  1419     07E7  120A  118A  2800   	ljmp	start
  1420     07EA                     __end_of_main:
  1421                           
  1422                           	psect	text1
  1423     0444                     __ptext1:	
  1424 ;; *************** function _update *****************
  1425 ;; Defined at:
  1426 ;;		line 175 in file "RTC_EEPROM_driver.c"
  1427 ;; Parameters:    Size  Location     Type
  1428 ;;		None
  1429 ;; Auto vars:     Size  Location     Type
  1430 ;;		None
  1431 ;; Return value:  Size  Location     Type
  1432 ;;                  1    wreg      void 
  1433 ;; Registers used:
  1434 ;;		wreg, status,2, status,0, pclath, cstack
  1435 ;; Tracked objects:
  1436 ;;		On entry : 0/0
  1437 ;;		On exit  : 0/0
  1438 ;;		Unchanged: 0/0
  1439 ;; Data sizes:     COMMON   BANK0   BANK1   BANK3   BANK2
  1440 ;;      Params:         0       0       0       0       0
  1441 ;;      Locals:         0       0       0       0       0
  1442 ;;      Temps:          2       0       0       0       0
  1443 ;;      Totals:         2       0       0       0       0
  1444 ;;Total ram usage:        2 bytes
  1445 ;; Hardware stack levels used: 1
  1446 ;; Hardware stack levels required when called: 2
  1447 ;; This function calls:
  1448 ;;		_bcd2dec
  1449 ;;		_i2c_read
  1450 ;;		_i2c_start
  1451 ;;		_i2c_stop
  1452 ;;		_i2c_write
  1453 ;; This function is called by:
  1454 ;;		_main
  1455 ;; This function uses a non-reentrant model
  1456 ;;
  1457                           
  1458     0444                     _update:	
  1459                           ;psect for function _update
  1460                           
  1461     0444                     l1427:	
  1462                           ;incstack = 0
  1463                           ; Regs used in _update: [wreg+status,2+status,0+pclath+cstack]
  1464                           
  1465                           
  1466                           ;RTC_EEPROM_driver.c: 176:     i2c_start();
  1467     0444  120A  158A  277B  120A  118A  	fcall	_i2c_start
  1468                           
  1469                           ;RTC_EEPROM_driver.c: 177:     i2c_write(0xD0);
  1470     0449  30D0               	movlw	208
  1471     044A  120A  158A  27D4  120A  118A  	fcall	_i2c_write
  1472                           
  1473                           ;RTC_EEPROM_driver.c: 178:     i2c_write(0x00);
  1474     044F  3000               	movlw	0
  1475     0450  120A  158A  27D4  120A  118A  	fcall	_i2c_write
  1476                           
  1477                           ;RTC_EEPROM_driver.c: 179:     i2c_stop();
  1478     0455  120A  158A  2784  120A  118A  	fcall	_i2c_stop
  1479                           
  1480                           ;RTC_EEPROM_driver.c: 180:     i2c_start();
  1481     045A  120A  158A  277B  120A  118A  	fcall	_i2c_start
  1482                           
  1483                           ;RTC_EEPROM_driver.c: 181:     i2c_write(0xD1);
  1484     045F  30D1               	movlw	209
  1485     0460  120A  158A  27D4  120A  118A  	fcall	_i2c_write
  1486                           
  1487                           ;RTC_EEPROM_driver.c: 182:     sec = bcd2dec(i2c_read());
  1488     0465  120A  158A  27E9  120A  118A  	fcall	_i2c_read
  1489     046A  00FA               	movwf	??_update
  1490     046B  01FB               	clrf	??_update+1
  1491     046C  087A               	movf	??_update,w
  1492     046D  00F6               	movwf	bcd2dec@temp
  1493     046E  087B               	movf	??_update+1,w
  1494     046F  00F7               	movwf	bcd2dec@temp+1
  1495     0470  120A  118A  2056  120A  118A  	fcall	_bcd2dec
  1496     0475  0877               	movf	?_bcd2dec+1,w
  1497     0476  1283               	bcf	3,5	;RP0=0, select bank0
  1498     0477  1303               	bcf	3,6	;RP1=0, select bank0
  1499     0478  00BF               	movwf	_sec+1
  1500     0479  0876               	movf	?_bcd2dec,w
  1501     047A  00BE               	movwf	_sec
  1502                           
  1503                           ;RTC_EEPROM_driver.c: 183:     min = bcd2dec(i2c_read());
  1504     047B  120A  158A  27E9  120A  118A  	fcall	_i2c_read
  1505     0480  00FA               	movwf	??_update
  1506     0481  01FB               	clrf	??_update+1
  1507     0482  087A               	movf	??_update,w
  1508     0483  00F6               	movwf	bcd2dec@temp
  1509     0484  087B               	movf	??_update+1,w
  1510     0485  00F7               	movwf	bcd2dec@temp+1
  1511     0486  120A  118A  2056  120A  118A  	fcall	_bcd2dec
  1512     048B  0877               	movf	?_bcd2dec+1,w
  1513     048C  1283               	bcf	3,5	;RP0=0, select bank0
  1514     048D  1303               	bcf	3,6	;RP1=0, select bank0
  1515     048E  00BD               	movwf	_min+1
  1516     048F  0876               	movf	?_bcd2dec,w
  1517     0490  00BC               	movwf	_min
  1518                           
  1519                           ;RTC_EEPROM_driver.c: 184:     hour = bcd2dec(i2c_read());
  1520     0491  120A  158A  27E9  120A  118A  	fcall	_i2c_read
  1521     0496  00FA               	movwf	??_update
  1522     0497  01FB               	clrf	??_update+1
  1523     0498  087A               	movf	??_update,w
  1524     0499  00F6               	movwf	bcd2dec@temp
  1525     049A  087B               	movf	??_update+1,w
  1526     049B  00F7               	movwf	bcd2dec@temp+1
  1527     049C  120A  118A  2056  120A  118A  	fcall	_bcd2dec
  1528     04A1  0877               	movf	?_bcd2dec+1,w
  1529     04A2  1283               	bcf	3,5	;RP0=0, select bank0
  1530     04A3  1303               	bcf	3,6	;RP1=0, select bank0
  1531     04A4  00BB               	movwf	_hour+1
  1532     04A5  0876               	movf	?_bcd2dec,w
  1533     04A6  00BA               	movwf	_hour
  1534                           
  1535                           ;RTC_EEPROM_driver.c: 185:     day = bcd2dec(i2c_read());
  1536     04A7  120A  158A  27E9  120A  118A  	fcall	_i2c_read
  1537     04AC  00FA               	movwf	??_update
  1538     04AD  01FB               	clrf	??_update+1
  1539     04AE  087A               	movf	??_update,w
  1540     04AF  00F6               	movwf	bcd2dec@temp
  1541     04B0  087B               	movf	??_update+1,w
  1542     04B1  00F7               	movwf	bcd2dec@temp+1
  1543     04B2  120A  118A  2056  120A  118A  	fcall	_bcd2dec
  1544     04B7  0877               	movf	?_bcd2dec+1,w
  1545     04B8  1283               	bcf	3,5	;RP0=0, select bank0
  1546     04B9  1303               	bcf	3,6	;RP1=0, select bank0
  1547     04BA  00B5               	movwf	_day+1
  1548     04BB  0876               	movf	?_bcd2dec,w
  1549     04BC  00B4               	movwf	_day
  1550                           
  1551                           ;RTC_EEPROM_driver.c: 186:     date = bcd2dec(i2c_read());
  1552     04BD  120A  158A  27E9  120A  118A  	fcall	_i2c_read
  1553     04C2  00FA               	movwf	??_update
  1554     04C3  01FB               	clrf	??_update+1
  1555     04C4  087A               	movf	??_update,w
  1556     04C5  00F6               	movwf	bcd2dec@temp
  1557     04C6  087B               	movf	??_update+1,w
  1558     04C7  00F7               	movwf	bcd2dec@temp+1
  1559     04C8  120A  118A  2056  120A  118A  	fcall	_bcd2dec
  1560     04CD  0877               	movf	?_bcd2dec+1,w
  1561     04CE  1283               	bcf	3,5	;RP0=0, select bank0
  1562     04CF  1303               	bcf	3,6	;RP1=0, select bank0
  1563     04D0  00B9               	movwf	_date+1
  1564     04D1  0876               	movf	?_bcd2dec,w
  1565     04D2  00B8               	movwf	_date
  1566                           
  1567                           ;RTC_EEPROM_driver.c: 187:     month = bcd2dec(i2c_read());
  1568     04D3  120A  158A  27E9  120A  118A  	fcall	_i2c_read
  1569     04D8  00FA               	movwf	??_update
  1570     04D9  01FB               	clrf	??_update+1
  1571     04DA  087A               	movf	??_update,w
  1572     04DB  00F6               	movwf	bcd2dec@temp
  1573     04DC  087B               	movf	??_update+1,w
  1574     04DD  00F7               	movwf	bcd2dec@temp+1
  1575     04DE  120A  118A  2056  120A  118A  	fcall	_bcd2dec
  1576     04E3  0877               	movf	?_bcd2dec+1,w
  1577     04E4  1283               	bcf	3,5	;RP0=0, select bank0
  1578     04E5  1303               	bcf	3,6	;RP1=0, select bank0
  1579     04E6  00B7               	movwf	_month+1
  1580     04E7  0876               	movf	?_bcd2dec,w
  1581     04E8  00B6               	movwf	_month
  1582                           
  1583                           ;RTC_EEPROM_driver.c: 188:     year = bcd2dec(i2c_read());
  1584     04E9  120A  158A  27E9  120A  118A  	fcall	_i2c_read
  1585     04EE  00FA               	movwf	??_update
  1586     04EF  01FB               	clrf	??_update+1
  1587     04F0  087A               	movf	??_update,w
  1588     04F1  00F6               	movwf	bcd2dec@temp
  1589     04F2  087B               	movf	??_update+1,w
  1590     04F3  00F7               	movwf	bcd2dec@temp+1
  1591     04F4  120A  118A  2056  120A  118A  	fcall	_bcd2dec
  1592     04F9  0877               	movf	?_bcd2dec+1,w
  1593     04FA  1283               	bcf	3,5	;RP0=0, select bank0
  1594     04FB  1303               	bcf	3,6	;RP1=0, select bank0
  1595     04FC  00B3               	movwf	_year+1
  1596     04FD  0876               	movf	?_bcd2dec,w
  1597     04FE  00B2               	movwf	_year
  1598                           
  1599                           ;RTC_EEPROM_driver.c: 189:     i2c_stop();
  1600     04FF  120A  158A  2784  120A  118A  	fcall	_i2c_stop
  1601                           
  1602                           ;RTC_EEPROM_driver.c: 190:     i2c_start();
  1603     0504  120A  158A  277B  120A  118A  	fcall	_i2c_start
  1604                           
  1605                           ;RTC_EEPROM_driver.c: 191:     i2c_write(0xD1);
  1606     0509  30D1               	movlw	209
  1607     050A  120A  158A  27D4  120A  118A  	fcall	_i2c_write
  1608                           
  1609                           ;RTC_EEPROM_driver.c: 192:     i2c_read();
  1610     050F  120A  158A  27E9  120A  118A  	fcall	_i2c_read
  1611                           
  1612                           ;RTC_EEPROM_driver.c: 193:     i2c_stop();
  1613     0514  120A  158A  2784  120A  118A  	fcall	_i2c_stop
  1614     0519                     l215:
  1615     0519  0008               	return
  1616     051A                     __end_of_update:
  1617                           
  1618                           	psect	text2
  1619     0056                     __ptext2:	
  1620 ;; *************** function _bcd2dec *****************
  1621 ;; Defined at:
  1622 ;;		line 159 in file "RTC_EEPROM_driver.c"
  1623 ;; Parameters:    Size  Location     Type
  1624 ;;  temp            2    6[COMMON] int 
  1625 ;; Auto vars:     Size  Location     Type
  1626 ;;		None
  1627 ;; Return value:  Size  Location     Type
  1628 ;;                  2    6[COMMON] int 
  1629 ;; Registers used:
  1630 ;;		wreg, status,2, status,0, pclath, cstack
  1631 ;; Tracked objects:
  1632 ;;		On entry : 0/0
  1633 ;;		On exit  : 0/0
  1634 ;;		Unchanged: 0/0
  1635 ;; Data sizes:     COMMON   BANK0   BANK1   BANK3   BANK2
  1636 ;;      Params:         2       0       0       0       0
  1637 ;;      Locals:         0       0       0       0       0
  1638 ;;      Temps:          2       0       0       0       0
  1639 ;;      Totals:         4       0       0       0       0
  1640 ;;Total ram usage:        4 bytes
  1641 ;; Hardware stack levels used: 1
  1642 ;; Hardware stack levels required when called: 1
  1643 ;; This function calls:
  1644 ;;		___wmul
  1645 ;; This function is called by:
  1646 ;;		_update
  1647 ;; This function uses a non-reentrant model
  1648 ;;
  1649                           
  1650     0056                     _bcd2dec:	
  1651                           ;psect for function _bcd2dec
  1652                           
  1653     0056                     l1329:	
  1654                           ;incstack = 0
  1655                           ; Regs used in _bcd2dec: [wreg+status,2+status,0+pclath+cstack]
  1656                           
  1657                           
  1658                           ;RTC_EEPROM_driver.c: 160:     return ((temp>>4)*10)+((temp&0x0F));
  1659     0056  300F               	movlw	15
  1660     0057  0576               	andwf	bcd2dec@temp,w
  1661     0058  00F8               	movwf	??_bcd2dec
  1662     0059  3000               	movlw	0
  1663     005A  0577               	andwf	bcd2dec@temp+1,w
  1664     005B  00F9               	movwf	??_bcd2dec+1
  1665     005C  0E76               	swapf	bcd2dec@temp,w
  1666     005D  390F               	andlw	15
  1667     005E  00F0               	movwf	___wmul@multiplier
  1668     005F  0E77               	swapf	bcd2dec@temp+1,w
  1669     0060  39F0               	andlw	240
  1670     0061  04F0               	iorwf	___wmul@multiplier,f
  1671     0062  0E77               	swapf	bcd2dec@temp+1,w
  1672     0063  390F               	andlw	15
  1673     0064  00F1               	movwf	___wmul@multiplier+1
  1674     0065  30F0               	movlw	240
  1675     0066  1DF1               	btfss	___wmul@multiplier+1,3
  1676     0067  3000               	movlw	0
  1677     0068  04F1               	iorwf	___wmul@multiplier+1,f
  1678     0069  300A               	movlw	10
  1679     006A  00F2               	movwf	___wmul@multiplicand
  1680     006B  3000               	movlw	0
  1681     006C  00F3               	movwf	___wmul@multiplicand+1
  1682     006D  120A  118A  2031  120A  118A  	fcall	___wmul
  1683     0072  0878               	movf	??_bcd2dec,w
  1684     0073  0770               	addwf	?___wmul,w
  1685     0074  00F6               	movwf	?_bcd2dec
  1686     0075  0879               	movf	??_bcd2dec+1,w
  1687     0076  1803               	skipnc
  1688     0077  0A79               	incf	??_bcd2dec+1,w
  1689     0078  0771               	addwf	?___wmul+1,w
  1690     0079  00F7               	movwf	?_bcd2dec+1
  1691     007A                     l209:
  1692     007A  0008               	return
  1693     007B                     __end_of_bcd2dec:
  1694                           
  1695                           	psect	text3
  1696     0031                     __ptext3:	
  1697 ;; *************** function ___wmul *****************
  1698 ;; Defined at:
  1699 ;;		line 15 in file "C:\Program Files\Microchip\xc8\v2.45\pic\sources\c99\common\Umul16.c"
  1700 ;; Parameters:    Size  Location     Type
  1701 ;;  multiplier      2    0[COMMON] unsigned int 
  1702 ;;  multiplicand    2    2[COMMON] unsigned int 
  1703 ;; Auto vars:     Size  Location     Type
  1704 ;;  product         2    4[COMMON] unsigned int 
  1705 ;; Return value:  Size  Location     Type
  1706 ;;                  2    0[COMMON] unsigned int 
  1707 ;; Registers used:
  1708 ;;		wreg, status,2, status,0
  1709 ;; Tracked objects:
  1710 ;;		On entry : 0/0
  1711 ;;		On exit  : 0/0
  1712 ;;		Unchanged: 0/0
  1713 ;; Data sizes:     COMMON   BANK0   BANK1   BANK3   BANK2
  1714 ;;      Params:         4       0       0       0       0
  1715 ;;      Locals:         2       0       0       0       0
  1716 ;;      Temps:          0       0       0       0       0
  1717 ;;      Totals:         6       0       0       0       0
  1718 ;;Total ram usage:        6 bytes
  1719 ;; Hardware stack levels used: 1
  1720 ;; This function calls:
  1721 ;;		Nothing
  1722 ;; This function is called by:
  1723 ;;		_bcd2dec
  1724 ;; This function uses a non-reentrant model
  1725 ;;
  1726                           
  1727     0031                     ___wmul:	
  1728                           ;psect for function ___wmul
  1729                           
  1730     0031                     l1177:	
  1731                           ;incstack = 0
  1732                           ; Regs used in ___wmul: [wreg+status,2+status,0]
  1733                           
  1734     0031  01F4               	clrf	___wmul@product
  1735     0032  01F5               	clrf	___wmul@product+1
  1736     0033                     l1179:
  1737     0033  1C70               	btfss	___wmul@multiplier,0
  1738     0034  2836               	goto	u471
  1739     0035  2837               	goto	u470
  1740     0036                     u471:
  1741     0036  283D               	goto	l301
  1742     0037                     u470:
  1743     0037                     l1181:
  1744     0037  0872               	movf	___wmul@multiplicand,w
  1745     0038  07F4               	addwf	___wmul@product,f
  1746     0039  1803               	skipnc
  1747     003A  0AF5               	incf	___wmul@product+1,f
  1748     003B  0873               	movf	___wmul@multiplicand+1,w
  1749     003C  07F5               	addwf	___wmul@product+1,f
  1750     003D                     l301:
  1751     003D  3001               	movlw	1
  1752     003E                     u485:
  1753     003E  1003               	clrc
  1754     003F  0DF2               	rlf	___wmul@multiplicand,f
  1755     0040  0DF3               	rlf	___wmul@multiplicand+1,f
  1756     0041  3EFF               	addlw	-1
  1757     0042  1D03               	skipz
  1758     0043  283E               	goto	u485
  1759     0044                     l1183:
  1760     0044  3001               	movlw	1
  1761     0045                     u495:
  1762     0045  1003               	clrc
  1763     0046  0CF1               	rrf	___wmul@multiplier+1,f
  1764     0047  0CF0               	rrf	___wmul@multiplier,f
  1765     0048  3EFF               	addlw	-1
  1766     0049  1D03               	skipz
  1767     004A  2845               	goto	u495
  1768     004B                     l1185:
  1769     004B  0870               	movf	___wmul@multiplier,w
  1770     004C  0471               	iorwf	___wmul@multiplier+1,w
  1771     004D  1D03               	btfss	3,2
  1772     004E  2850               	goto	u501
  1773     004F  2851               	goto	u500
  1774     0050                     u501:
  1775     0050  2833               	goto	l1179
  1776     0051                     u500:
  1777     0051                     l1187:
  1778     0051  0875               	movf	___wmul@product+1,w
  1779     0052  00F1               	movwf	?___wmul+1
  1780     0053  0874               	movf	___wmul@product,w
  1781     0054  00F0               	movwf	?___wmul
  1782     0055                     l303:
  1783     0055  0008               	return
  1784     0056                     __end_of___wmul:
  1785                           
  1786                           	psect	text4
  1787     02E8                     __ptext4:	
  1788 ;; *************** function _setup *****************
  1789 ;; Defined at:
  1790 ;;		line 162 in file "RTC_EEPROM_driver.c"
  1791 ;; Parameters:    Size  Location     Type
  1792 ;;		None
  1793 ;; Auto vars:     Size  Location     Type
  1794 ;;		None
  1795 ;; Return value:  Size  Location     Type
  1796 ;;                  1    wreg      void 
  1797 ;; Registers used:
  1798 ;;		wreg, status,2, status,0, btemp+1, pclath, cstack
  1799 ;; Tracked objects:
  1800 ;;		On entry : 0/0
  1801 ;;		On exit  : 0/0
  1802 ;;		Unchanged: 0/0
  1803 ;; Data sizes:     COMMON   BANK0   BANK1   BANK3   BANK2
  1804 ;;      Params:         0       0       0       0       0
  1805 ;;      Locals:         0       0       0       0       0
  1806 ;;      Temps:          0       0       0       0       0
  1807 ;;      Totals:         0       0       0       0       0
  1808 ;;Total ram usage:        0 bytes
  1809 ;; Hardware stack levels used: 1
  1810 ;; Hardware stack levels required when called: 2
  1811 ;; This function calls:
  1812 ;;		_dec2bcd
  1813 ;;		_i2c_start
  1814 ;;		_i2c_stop
  1815 ;;		_i2c_write
  1816 ;; This function is called by:
  1817 ;;		_main
  1818 ;; This function uses a non-reentrant model
  1819 ;;
  1820                           
  1821     02E8                     _setup:	
  1822                           ;psect for function _setup
  1823                           
  1824     02E8                     l1395:	
  1825                           ;incstack = 0
  1826                           ; Regs used in _setup: [wreg+status,2+status,0+btemp+1+pclath+cstack]
  1827                           
  1828                           
  1829                           ;RTC_EEPROM_driver.c: 163:     i2c_start();
  1830     02E8  120A  158A  277B  120A  118A  	fcall	_i2c_start
  1831                           
  1832                           ;RTC_EEPROM_driver.c: 164:     i2c_write(0xD0);
  1833     02ED  30D0               	movlw	208
  1834     02EE  120A  158A  27D4  120A  118A  	fcall	_i2c_write
  1835                           
  1836                           ;RTC_EEPROM_driver.c: 165:     i2c_write(0x00);
  1837     02F3  3000               	movlw	0
  1838     02F4  120A  158A  27D4  120A  118A  	fcall	_i2c_write
  1839     02F9                     l1397:
  1840                           
  1841                           ;RTC_EEPROM_driver.c: 166:     i2c_write(dec2bcd(sec));
  1842     02F9  1283               	bcf	3,5	;RP0=0, select bank0
  1843     02FA  1303               	bcf	3,6	;RP1=0, select bank0
  1844     02FB  083F               	movf	_sec+1,w
  1845     02FC  00F9               	movwf	dec2bcd@temp+1
  1846     02FD  083E               	movf	_sec,w
  1847     02FE  00F8               	movwf	dec2bcd@temp
  1848     02FF  120A  118A  20A9  120A  118A  	fcall	_dec2bcd
  1849     0304  0878               	movf	?_dec2bcd,w
  1850     0305  120A  158A  27D4  120A  118A  	fcall	_i2c_write
  1851     030A                     l1399:
  1852                           
  1853                           ;RTC_EEPROM_driver.c: 167:     i2c_write(dec2bcd(min));
  1854     030A  1283               	bcf	3,5	;RP0=0, select bank0
  1855     030B  1303               	bcf	3,6	;RP1=0, select bank0
  1856     030C  083D               	movf	_min+1,w
  1857     030D  00F9               	movwf	dec2bcd@temp+1
  1858     030E  083C               	movf	_min,w
  1859     030F  00F8               	movwf	dec2bcd@temp
  1860     0310  120A  118A  20A9  120A  118A  	fcall	_dec2bcd
  1861     0315  0878               	movf	?_dec2bcd,w
  1862     0316  120A  158A  27D4  120A  118A  	fcall	_i2c_write
  1863     031B                     l1401:
  1864                           
  1865                           ;RTC_EEPROM_driver.c: 168:     i2c_write(dec2bcd(hour)|0x60);
  1866     031B  1283               	bcf	3,5	;RP0=0, select bank0
  1867     031C  1303               	bcf	3,6	;RP1=0, select bank0
  1868     031D  083B               	movf	_hour+1,w
  1869     031E  00F9               	movwf	dec2bcd@temp+1
  1870     031F  083A               	movf	_hour,w
  1871     0320  00F8               	movwf	dec2bcd@temp
  1872     0321  120A  118A  20A9  120A  118A  	fcall	_dec2bcd
  1873     0326  0878               	movf	?_dec2bcd,w
  1874     0327  3860               	iorlw	96
  1875     0328  120A  158A  27D4  120A  118A  	fcall	_i2c_write
  1876     032D                     l1403:
  1877                           
  1878                           ;RTC_EEPROM_driver.c: 169:     i2c_write(dec2bcd(day));
  1879     032D  1283               	bcf	3,5	;RP0=0, select bank0
  1880     032E  1303               	bcf	3,6	;RP1=0, select bank0
  1881     032F  0835               	movf	_day+1,w
  1882     0330  00F9               	movwf	dec2bcd@temp+1
  1883     0331  0834               	movf	_day,w
  1884     0332  00F8               	movwf	dec2bcd@temp
  1885     0333  120A  118A  20A9  120A  118A  	fcall	_dec2bcd
  1886     0338  0878               	movf	?_dec2bcd,w
  1887     0339  120A  158A  27D4  120A  118A  	fcall	_i2c_write
  1888     033E                     l1405:
  1889                           
  1890                           ;RTC_EEPROM_driver.c: 170:     i2c_write(dec2bcd(date));
  1891     033E  1283               	bcf	3,5	;RP0=0, select bank0
  1892     033F  1303               	bcf	3,6	;RP1=0, select bank0
  1893     0340  0839               	movf	_date+1,w
  1894     0341  00F9               	movwf	dec2bcd@temp+1
  1895     0342  0838               	movf	_date,w
  1896     0343  00F8               	movwf	dec2bcd@temp
  1897     0344  120A  118A  20A9  120A  118A  	fcall	_dec2bcd
  1898     0349  0878               	movf	?_dec2bcd,w
  1899     034A  120A  158A  27D4  120A  118A  	fcall	_i2c_write
  1900     034F                     l1407:
  1901                           
  1902                           ;RTC_EEPROM_driver.c: 171:     i2c_write(dec2bcd(month));
  1903     034F  1283               	bcf	3,5	;RP0=0, select bank0
  1904     0350  1303               	bcf	3,6	;RP1=0, select bank0
  1905     0351  0837               	movf	_month+1,w
  1906     0352  00F9               	movwf	dec2bcd@temp+1
  1907     0353  0836               	movf	_month,w
  1908     0354  00F8               	movwf	dec2bcd@temp
  1909     0355  120A  118A  20A9  120A  118A  	fcall	_dec2bcd
  1910     035A  0878               	movf	?_dec2bcd,w
  1911     035B  120A  158A  27D4  120A  118A  	fcall	_i2c_write
  1912     0360                     l1409:
  1913                           
  1914                           ;RTC_EEPROM_driver.c: 172:     i2c_write(dec2bcd(year));
  1915     0360  1283               	bcf	3,5	;RP0=0, select bank0
  1916     0361  1303               	bcf	3,6	;RP1=0, select bank0
  1917     0362  0833               	movf	_year+1,w
  1918     0363  00F9               	movwf	dec2bcd@temp+1
  1919     0364  0832               	movf	_year,w
  1920     0365  00F8               	movwf	dec2bcd@temp
  1921     0366  120A  118A  20A9  120A  118A  	fcall	_dec2bcd
  1922     036B  0878               	movf	?_dec2bcd,w
  1923     036C  120A  158A  27D4  120A  118A  	fcall	_i2c_write
  1924     0371                     l1411:
  1925                           
  1926                           ;RTC_EEPROM_driver.c: 173:     i2c_stop();
  1927     0371  120A  158A  2784  120A  118A  	fcall	_i2c_stop
  1928     0376                     l212:
  1929     0376  0008               	return
  1930     0377                     __end_of_setup:
  1931                           
  1932                           	psect	text5
  1933     00A9                     __ptext5:	
  1934 ;; *************** function _dec2bcd *****************
  1935 ;; Defined at:
  1936 ;;		line 156 in file "RTC_EEPROM_driver.c"
  1937 ;; Parameters:    Size  Location     Type
  1938 ;;  temp            2    8[COMMON] int 
  1939 ;; Auto vars:     Size  Location     Type
  1940 ;;		None
  1941 ;; Return value:  Size  Location     Type
  1942 ;;                  2    8[COMMON] int 
  1943 ;; Registers used:
  1944 ;;		wreg, status,2, status,0, btemp+1, pclath, cstack
  1945 ;; Tracked objects:
  1946 ;;		On entry : 0/0
  1947 ;;		On exit  : 0/0
  1948 ;;		Unchanged: 0/0
  1949 ;; Data sizes:     COMMON   BANK0   BANK1   BANK3   BANK2
  1950 ;;      Params:         2       0       0       0       0
  1951 ;;      Locals:         0       0       0       0       0
  1952 ;;      Temps:          2       0       0       0       0
  1953 ;;      Totals:         4       0       0       0       0
  1954 ;;Total ram usage:        4 bytes
  1955 ;; Hardware stack levels used: 1
  1956 ;; Hardware stack levels required when called: 1
  1957 ;; This function calls:
  1958 ;;		___awdiv
  1959 ;;		___awmod
  1960 ;; This function is called by:
  1961 ;;		_main
  1962 ;;		_setup
  1963 ;; This function uses a non-reentrant model
  1964 ;;
  1965                           
  1966     00A9                     _dec2bcd:	
  1967                           ;psect for function _dec2bcd
  1968                           
  1969     00A9                     l1273:	
  1970                           ;incstack = 0
  1971                           ; Regs used in _dec2bcd: [wreg+status,2+status,0+btemp+1+pclath+cstack]
  1972                           
  1973                           
  1974                           ;RTC_EEPROM_driver.c: 157:     return ((temp/10)<<4)+((temp%10));
  1975     00A9  300A               	movlw	10
  1976     00AA  00F0               	movwf	___awdiv@divisor
  1977     00AB  3000               	movlw	0
  1978     00AC  00F1               	movwf	___awdiv@divisor+1
  1979     00AD  0879               	movf	dec2bcd@temp+1,w
  1980     00AE  00F3               	movwf	___awdiv@dividend+1
  1981     00AF  0878               	movf	dec2bcd@temp,w
  1982     00B0  00F2               	movwf	___awdiv@dividend
  1983     00B1  120A  118A  220D  120A  118A  	fcall	___awdiv
  1984     00B6  0870               	movf	?___awdiv,w
  1985     00B7  00FA               	movwf	??_dec2bcd
  1986     00B8  0871               	movf	?___awdiv+1,w
  1987     00B9  00FB               	movwf	??_dec2bcd+1
  1988     00BA  0EFA               	swapf	??_dec2bcd,f
  1989     00BB  0EFB               	swapf	??_dec2bcd+1,f
  1990     00BC  30F0               	movlw	240
  1991     00BD  05FB               	andwf	??_dec2bcd+1,f
  1992     00BE  087A               	movf	??_dec2bcd,w
  1993     00BF  390F               	andlw	15
  1994     00C0  04FB               	iorwf	??_dec2bcd+1,f
  1995     00C1  30F0               	movlw	240
  1996     00C2  05FA               	andwf	??_dec2bcd,f
  1997     00C3  300A               	movlw	10
  1998     00C4  00F0               	movwf	___awmod@divisor
  1999     00C5  3000               	movlw	0
  2000     00C6  00F1               	movwf	___awmod@divisor+1
  2001     00C7  0879               	movf	dec2bcd@temp+1,w
  2002     00C8  00F3               	movwf	___awmod@dividend+1
  2003     00C9  0878               	movf	dec2bcd@temp,w
  2004     00CA  00F2               	movwf	___awmod@dividend
  2005     00CB  120A  118A  214E  120A  118A  	fcall	___awmod
  2006     00D0  0870               	movf	?___awmod,w
  2007     00D1  077A               	addwf	??_dec2bcd,w
  2008     00D2  00F8               	movwf	?_dec2bcd
  2009     00D3  0871               	movf	?___awmod+1,w
  2010     00D4  1803               	skipnc
  2011     00D5  0A71               	incf	?___awmod+1,w
  2012     00D6  077B               	addwf	??_dec2bcd+1,w
  2013     00D7  00F9               	movwf	?_dec2bcd+1
  2014     00D8                     l206:
  2015     00D8  0008               	return
  2016     00D9                     __end_of_dec2bcd:
  2017                           
  2018                           	psect	text6
  2019     014E                     __ptext6:	
  2020 ;; *************** function ___awmod *****************
  2021 ;; Defined at:
  2022 ;;		line 5 in file "C:\Program Files\Microchip\xc8\v2.45\pic\sources\c99\common\awmod.c"
  2023 ;; Parameters:    Size  Location     Type
  2024 ;;  divisor         2    0[COMMON] int 
  2025 ;;  dividend        2    2[COMMON] int 
  2026 ;; Auto vars:     Size  Location     Type
  2027 ;;  sign            1    5[COMMON] unsigned char 
  2028 ;;  counter         1    4[COMMON] unsigned char 
  2029 ;; Return value:  Size  Location     Type
  2030 ;;                  2    0[COMMON] int 
  2031 ;; Registers used:
  2032 ;;		wreg, status,2, status,0, btemp+1
  2033 ;; Tracked objects:
  2034 ;;		On entry : 0/0
  2035 ;;		On exit  : 0/0
  2036 ;;		Unchanged: 0/0
  2037 ;; Data sizes:     COMMON   BANK0   BANK1   BANK3   BANK2
  2038 ;;      Params:         4       0       0       0       0
  2039 ;;      Locals:         2       0       0       0       0
  2040 ;;      Temps:          0       0       0       0       0
  2041 ;;      Totals:         6       0       0       0       0
  2042 ;;Total ram usage:        6 bytes
  2043 ;; Hardware stack levels used: 1
  2044 ;; This function calls:
  2045 ;;		Nothing
  2046 ;; This function is called by:
  2047 ;;		_main
  2048 ;;		_dec2bcd
  2049 ;; This function uses a non-reentrant model
  2050 ;;
  2051                           
  2052     014E                     ___awmod:	
  2053                           ;psect for function ___awmod
  2054                           
  2055     014E                     l1235:	
  2056                           ;incstack = 0
  2057                           ; Regs used in ___awmod: [wreg+status,2+status,0+btemp+1]
  2058                           
  2059     014E  01F5               	clrf	___awmod@sign
  2060     014F                     l1237:
  2061     014F  1FF3               	btfss	___awmod@dividend+1,7
  2062     0150  2952               	goto	u611
  2063     0151  2953               	goto	u610
  2064     0152                     u611:
  2065     0152  295A               	goto	l1243
  2066     0153                     u610:
  2067     0153                     l1239:
  2068     0153  09F2               	comf	___awmod@dividend,f
  2069     0154  09F3               	comf	___awmod@dividend+1,f
  2070     0155  0AF2               	incf	___awmod@dividend,f
  2071     0156  1903               	skipnz
  2072     0157  0AF3               	incf	___awmod@dividend+1,f
  2073     0158                     l1241:
  2074     0158  01F5               	clrf	___awmod@sign
  2075     0159  0AF5               	incf	___awmod@sign,f
  2076     015A                     l1243:
  2077     015A  1FF1               	btfss	___awmod@divisor+1,7
  2078     015B  295D               	goto	u621
  2079     015C  295E               	goto	u620
  2080     015D                     u621:
  2081     015D  2963               	goto	l1247
  2082     015E                     u620:
  2083     015E                     l1245:
  2084     015E  09F0               	comf	___awmod@divisor,f
  2085     015F  09F1               	comf	___awmod@divisor+1,f
  2086     0160  0AF0               	incf	___awmod@divisor,f
  2087     0161  1903               	skipnz
  2088     0162  0AF1               	incf	___awmod@divisor+1,f
  2089     0163                     l1247:
  2090     0163  0870               	movf	___awmod@divisor,w
  2091     0164  0471               	iorwf	___awmod@divisor+1,w
  2092     0165  1903               	btfsc	3,2
  2093     0166  2968               	goto	u631
  2094     0167  2969               	goto	u630
  2095     0168                     u631:
  2096     0168  2998               	goto	l1265
  2097     0169                     u630:
  2098     0169                     l1249:
  2099     0169  01F4               	clrf	___awmod@counter
  2100     016A  0AF4               	incf	___awmod@counter,f
  2101     016B  2977               	goto	l1255
  2102     016C                     l1251:
  2103     016C  3001               	movlw	1
  2104     016D                     u645:
  2105     016D  1003               	clrc
  2106     016E  0DF0               	rlf	___awmod@divisor,f
  2107     016F  0DF1               	rlf	___awmod@divisor+1,f
  2108     0170  3EFF               	addlw	-1
  2109     0171  1D03               	skipz
  2110     0172  296D               	goto	u645
  2111     0173                     l1253:
  2112     0173  3001               	movlw	1
  2113     0174  00FF               	movwf	btemp+1
  2114     0175  087F               	movf	btemp+1,w
  2115     0176  07F4               	addwf	___awmod@counter,f
  2116     0177                     l1255:
  2117     0177  1FF1               	btfss	___awmod@divisor+1,7
  2118     0178  297A               	goto	u651
  2119     0179  297B               	goto	u650
  2120     017A                     u651:
  2121     017A  296C               	goto	l1251
  2122     017B                     u650:
  2123     017B                     l1257:
  2124     017B  0871               	movf	___awmod@divisor+1,w
  2125     017C  0273               	subwf	___awmod@dividend+1,w
  2126     017D  1D03               	skipz
  2127     017E  2981               	goto	u665
  2128     017F  0870               	movf	___awmod@divisor,w
  2129     0180  0272               	subwf	___awmod@dividend,w
  2130     0181                     u665:
  2131     0181  1C03               	skipc
  2132     0182  2984               	goto	u661
  2133     0183  2985               	goto	u660
  2134     0184                     u661:
  2135     0184  298B               	goto	l1261
  2136     0185                     u660:
  2137     0185                     l1259:
  2138     0185  0870               	movf	___awmod@divisor,w
  2139     0186  02F2               	subwf	___awmod@dividend,f
  2140     0187  0871               	movf	___awmod@divisor+1,w
  2141     0188  1C03               	skipc
  2142     0189  03F3               	decf	___awmod@dividend+1,f
  2143     018A  02F3               	subwf	___awmod@dividend+1,f
  2144     018B                     l1261:
  2145     018B  3001               	movlw	1
  2146     018C                     u675:
  2147     018C  1003               	clrc
  2148     018D  0CF1               	rrf	___awmod@divisor+1,f
  2149     018E  0CF0               	rrf	___awmod@divisor,f
  2150     018F  3EFF               	addlw	-1
  2151     0190  1D03               	skipz
  2152     0191  298C               	goto	u675
  2153     0192                     l1263:
  2154     0192  3001               	movlw	1
  2155     0193  02F4               	subwf	___awmod@counter,f
  2156     0194  1D03               	btfss	3,2
  2157     0195  2997               	goto	u681
  2158     0196  2998               	goto	u680
  2159     0197                     u681:
  2160     0197  297B               	goto	l1257
  2161     0198                     u680:
  2162     0198                     l1265:
  2163     0198  0875               	movf	___awmod@sign,w
  2164     0199  1903               	btfsc	3,2
  2165     019A  299C               	goto	u691
  2166     019B  299D               	goto	u690
  2167     019C                     u691:
  2168     019C  29A2               	goto	l1269
  2169     019D                     u690:
  2170     019D                     l1267:
  2171     019D  09F2               	comf	___awmod@dividend,f
  2172     019E  09F3               	comf	___awmod@dividend+1,f
  2173     019F  0AF2               	incf	___awmod@dividend,f
  2174     01A0  1903               	skipnz
  2175     01A1  0AF3               	incf	___awmod@dividend+1,f
  2176     01A2                     l1269:
  2177     01A2  0873               	movf	___awmod@dividend+1,w
  2178     01A3  00F1               	movwf	?___awmod+1
  2179     01A4  0872               	movf	___awmod@dividend,w
  2180     01A5  00F0               	movwf	?___awmod
  2181     01A6                     l467:
  2182     01A6  0008               	return
  2183     01A7                     __end_of___awmod:
  2184                           
  2185                           	psect	text7
  2186     020D                     __ptext7:	
  2187 ;; *************** function ___awdiv *****************
  2188 ;; Defined at:
  2189 ;;		line 5 in file "C:\Program Files\Microchip\xc8\v2.45\pic\sources\c99\common\awdiv.c"
  2190 ;; Parameters:    Size  Location     Type
  2191 ;;  divisor         2    0[COMMON] int 
  2192 ;;  dividend        2    2[COMMON] int 
  2193 ;; Auto vars:     Size  Location     Type
  2194 ;;  quotient        2    6[COMMON] int 
  2195 ;;  sign            1    5[COMMON] unsigned char 
  2196 ;;  counter         1    4[COMMON] unsigned char 
  2197 ;; Return value:  Size  Location     Type
  2198 ;;                  2    0[COMMON] int 
  2199 ;; Registers used:
  2200 ;;		wreg, status,2, status,0, btemp+1
  2201 ;; Tracked objects:
  2202 ;;		On entry : 0/0
  2203 ;;		On exit  : 0/0
  2204 ;;		Unchanged: 0/0
  2205 ;; Data sizes:     COMMON   BANK0   BANK1   BANK3   BANK2
  2206 ;;      Params:         4       0       0       0       0
  2207 ;;      Locals:         4       0       0       0       0
  2208 ;;      Temps:          0       0       0       0       0
  2209 ;;      Totals:         8       0       0       0       0
  2210 ;;Total ram usage:        8 bytes
  2211 ;; Hardware stack levels used: 1
  2212 ;; This function calls:
  2213 ;;		Nothing
  2214 ;; This function is called by:
  2215 ;;		_main
  2216 ;;		_dec2bcd
  2217 ;; This function uses a non-reentrant model
  2218 ;;
  2219                           
  2220     020D                     ___awdiv:	
  2221                           ;psect for function ___awdiv
  2222                           
  2223     020D                     l1191:	
  2224                           ;incstack = 0
  2225                           ; Regs used in ___awdiv: [wreg+status,2+status,0+btemp+1]
  2226                           
  2227     020D  01F5               	clrf	___awdiv@sign
  2228     020E                     l1193:
  2229     020E  1FF1               	btfss	___awdiv@divisor+1,7
  2230     020F  2A11               	goto	u511
  2231     0210  2A12               	goto	u510
  2232     0211                     u511:
  2233     0211  2A19               	goto	l1199
  2234     0212                     u510:
  2235     0212                     l1195:
  2236     0212  09F0               	comf	___awdiv@divisor,f
  2237     0213  09F1               	comf	___awdiv@divisor+1,f
  2238     0214  0AF0               	incf	___awdiv@divisor,f
  2239     0215  1903               	skipnz
  2240     0216  0AF1               	incf	___awdiv@divisor+1,f
  2241     0217                     l1197:
  2242     0217  01F5               	clrf	___awdiv@sign
  2243     0218  0AF5               	incf	___awdiv@sign,f
  2244     0219                     l1199:
  2245     0219  1FF3               	btfss	___awdiv@dividend+1,7
  2246     021A  2A1C               	goto	u521
  2247     021B  2A1D               	goto	u520
  2248     021C                     u521:
  2249     021C  2A26               	goto	l1205
  2250     021D                     u520:
  2251     021D                     l1201:
  2252     021D  09F2               	comf	___awdiv@dividend,f
  2253     021E  09F3               	comf	___awdiv@dividend+1,f
  2254     021F  0AF2               	incf	___awdiv@dividend,f
  2255     0220  1903               	skipnz
  2256     0221  0AF3               	incf	___awdiv@dividend+1,f
  2257     0222                     l1203:
  2258     0222  3001               	movlw	1
  2259     0223  00FF               	movwf	btemp+1
  2260     0224  087F               	movf	btemp+1,w
  2261     0225  06F5               	xorwf	___awdiv@sign,f
  2262     0226                     l1205:
  2263     0226  01F6               	clrf	___awdiv@quotient
  2264     0227  01F7               	clrf	___awdiv@quotient+1
  2265     0228                     l1207:
  2266     0228  0870               	movf	___awdiv@divisor,w
  2267     0229  0471               	iorwf	___awdiv@divisor+1,w
  2268     022A  1903               	btfsc	3,2
  2269     022B  2A2D               	goto	u531
  2270     022C  2A2E               	goto	u530
  2271     022D                     u531:
  2272     022D  2A65               	goto	l1227
  2273     022E                     u530:
  2274     022E                     l1209:
  2275     022E  01F4               	clrf	___awdiv@counter
  2276     022F  0AF4               	incf	___awdiv@counter,f
  2277     0230  2A3C               	goto	l1215
  2278     0231                     l1211:
  2279     0231  3001               	movlw	1
  2280     0232                     u545:
  2281     0232  1003               	clrc
  2282     0233  0DF0               	rlf	___awdiv@divisor,f
  2283     0234  0DF1               	rlf	___awdiv@divisor+1,f
  2284     0235  3EFF               	addlw	-1
  2285     0236  1D03               	skipz
  2286     0237  2A32               	goto	u545
  2287     0238                     l1213:
  2288     0238  3001               	movlw	1
  2289     0239  00FF               	movwf	btemp+1
  2290     023A  087F               	movf	btemp+1,w
  2291     023B  07F4               	addwf	___awdiv@counter,f
  2292     023C                     l1215:
  2293     023C  1FF1               	btfss	___awdiv@divisor+1,7
  2294     023D  2A3F               	goto	u551
  2295     023E  2A40               	goto	u550
  2296     023F                     u551:
  2297     023F  2A31               	goto	l1211
  2298     0240                     u550:
  2299     0240                     l1217:
  2300     0240  3001               	movlw	1
  2301     0241                     u565:
  2302     0241  1003               	clrc
  2303     0242  0DF6               	rlf	___awdiv@quotient,f
  2304     0243  0DF7               	rlf	___awdiv@quotient+1,f
  2305     0244  3EFF               	addlw	-1
  2306     0245  1D03               	skipz
  2307     0246  2A41               	goto	u565
  2308     0247  0871               	movf	___awdiv@divisor+1,w
  2309     0248  0273               	subwf	___awdiv@dividend+1,w
  2310     0249  1D03               	skipz
  2311     024A  2A4D               	goto	u575
  2312     024B  0870               	movf	___awdiv@divisor,w
  2313     024C  0272               	subwf	___awdiv@dividend,w
  2314     024D                     u575:
  2315     024D  1C03               	skipc
  2316     024E  2A50               	goto	u571
  2317     024F  2A51               	goto	u570
  2318     0250                     u571:
  2319     0250  2A58               	goto	l1223
  2320     0251                     u570:
  2321     0251                     l1219:
  2322     0251  0870               	movf	___awdiv@divisor,w
  2323     0252  02F2               	subwf	___awdiv@dividend,f
  2324     0253  0871               	movf	___awdiv@divisor+1,w
  2325     0254  1C03               	skipc
  2326     0255  03F3               	decf	___awdiv@dividend+1,f
  2327     0256  02F3               	subwf	___awdiv@dividend+1,f
  2328     0257                     l1221:
  2329     0257  1476               	bsf	___awdiv@quotient,0
  2330     0258                     l1223:
  2331     0258  3001               	movlw	1
  2332     0259                     u585:
  2333     0259  1003               	clrc
  2334     025A  0CF1               	rrf	___awdiv@divisor+1,f
  2335     025B  0CF0               	rrf	___awdiv@divisor,f
  2336     025C  3EFF               	addlw	-1
  2337     025D  1D03               	skipz
  2338     025E  2A59               	goto	u585
  2339     025F                     l1225:
  2340     025F  3001               	movlw	1
  2341     0260  02F4               	subwf	___awdiv@counter,f
  2342     0261  1D03               	btfss	3,2
  2343     0262  2A64               	goto	u591
  2344     0263  2A65               	goto	u590
  2345     0264                     u591:
  2346     0264  2A40               	goto	l1217
  2347     0265                     u590:
  2348     0265                     l1227:
  2349     0265  0875               	movf	___awdiv@sign,w
  2350     0266  1903               	btfsc	3,2
  2351     0267  2A69               	goto	u601
  2352     0268  2A6A               	goto	u600
  2353     0269                     u601:
  2354     0269  2A6F               	goto	l1231
  2355     026A                     u600:
  2356     026A                     l1229:
  2357     026A  09F6               	comf	___awdiv@quotient,f
  2358     026B  09F7               	comf	___awdiv@quotient+1,f
  2359     026C  0AF6               	incf	___awdiv@quotient,f
  2360     026D  1903               	skipnz
  2361     026E  0AF7               	incf	___awdiv@quotient+1,f
  2362     026F                     l1231:
  2363     026F  0877               	movf	___awdiv@quotient+1,w
  2364     0270  00F1               	movwf	?___awdiv+1
  2365     0271  0876               	movf	___awdiv@quotient,w
  2366     0272  00F0               	movwf	?___awdiv
  2367     0273                     l454:
  2368     0273  0008               	return
  2369     0274                     __end_of___awdiv:
  2370                           
  2371                           	psect	text8
  2372     0274                     __ptext8:	
  2373 ;; *************** function _init *****************
  2374 ;; Defined at:
  2375 ;;		line 104 in file "RTC_EEPROM_driver.c"
  2376 ;; Parameters:    Size  Location     Type
  2377 ;;		None
  2378 ;; Auto vars:     Size  Location     Type
  2379 ;;		None
  2380 ;; Return value:  Size  Location     Type
  2381 ;;                  1    wreg      void 
  2382 ;; Registers used:
  2383 ;;		wreg, status,2, status,0, pclath, cstack
  2384 ;; Tracked objects:
  2385 ;;		On entry : 0/0
  2386 ;;		On exit  : 0/0
  2387 ;;		Unchanged: 0/0
  2388 ;; Data sizes:     COMMON   BANK0   BANK1   BANK3   BANK2
  2389 ;;      Params:         0       0       0       0       0
  2390 ;;      Locals:         0       0       0       0       0
  2391 ;;      Temps:          2       0       0       0       0
  2392 ;;      Totals:         2       0       0       0       0
  2393 ;;Total ram usage:        2 bytes
  2394 ;; Hardware stack levels used: 1
  2395 ;; Hardware stack levels required when called: 1
  2396 ;; This function calls:
  2397 ;;		_lcd_cmd
  2398 ;; This function is called by:
  2399 ;;		_main
  2400 ;; This function uses a non-reentrant model
  2401 ;;
  2402                           
  2403     0274                     _init:	
  2404                           ;psect for function _init
  2405                           
  2406     0274                     l1369:	
  2407                           ;incstack = 0
  2408                           ; Regs used in _init: [wreg+status,2+status,0+pclath+cstack]
  2409                           
  2410                           
  2411                           ;RTC_EEPROM_driver.c: 105:     TRISC = 0X18;
  2412     0274  3018               	movlw	24
  2413     0275  1683               	bsf	3,5	;RP0=1, select bank1
  2414     0276  1303               	bcf	3,6	;RP1=0, select bank1
  2415     0277  0087               	movwf	7	;volatile
  2416     0278                     l1371:
  2417                           
  2418                           ;RTC_EEPROM_driver.c: 106:     PORTC = 0x00;
  2419     0278  1283               	bcf	3,5	;RP0=0, select bank0
  2420     0279  1303               	bcf	3,6	;RP1=0, select bank0
  2421     027A  0187               	clrf	7	;volatile
  2422     027B                     l1373:
  2423                           
  2424                           ;RTC_EEPROM_driver.c: 107:     TRISD = 0x00;
  2425     027B  1683               	bsf	3,5	;RP0=1, select bank1
  2426     027C  1303               	bcf	3,6	;RP1=0, select bank1
  2427     027D  0188               	clrf	8	;volatile
  2428     027E                     l1375:
  2429                           
  2430                           ;RTC_EEPROM_driver.c: 108:     lcd_cmd(0x38);
  2431     027E  3038               	movlw	56
  2432     027F  120A  158A  27C0  120A  118A  	fcall	_lcd_cmd
  2433     0284                     l1377:
  2434                           
  2435                           ;RTC_EEPROM_driver.c: 109:     _delay((unsigned long)((4)*(16000000/4000.0)));
  2436     0284  3015               	movlw	21
  2437     0285  00F4               	movwf	??_init+1
  2438     0286  30C6               	movlw	198
  2439     0287  00F3               	movwf	??_init
  2440     0288                     u937:
  2441     0288  0BF3               	decfsz	??_init,f
  2442     0289  2A88               	goto	u937
  2443     028A  0BF4               	decfsz	??_init+1,f
  2444     028B  2A88               	goto	u937
  2445     028C  0000               	nop
  2446                           
  2447                           ;RTC_EEPROM_driver.c: 110:     lcd_cmd(0x38);
  2448     028D  3038               	movlw	56
  2449     028E  120A  158A  27C0  120A  118A  	fcall	_lcd_cmd
  2450     0293                     l1379:
  2451                           
  2452                           ;RTC_EEPROM_driver.c: 111:     _delay((unsigned long)((4)*(16000000/4000.0)));
  2453     0293  3015               	movlw	21
  2454     0294  00F4               	movwf	??_init+1
  2455     0295  30C6               	movlw	198
  2456     0296  00F3               	movwf	??_init
  2457     0297                     u947:
  2458     0297  0BF3               	decfsz	??_init,f
  2459     0298  2A97               	goto	u947
  2460     0299  0BF4               	decfsz	??_init+1,f
  2461     029A  2A97               	goto	u947
  2462     029B  0000               	nop
  2463     029C                     l1381:
  2464                           
  2465                           ;RTC_EEPROM_driver.c: 112:     lcd_cmd(0x38);
  2466     029C  3038               	movlw	56
  2467     029D  120A  158A  27C0  120A  118A  	fcall	_lcd_cmd
  2468                           
  2469                           ;RTC_EEPROM_driver.c: 113:     _delay((unsigned long)((4)*(16000000/4000.0)));
  2470     02A2  3015               	movlw	21
  2471     02A3  00F4               	movwf	??_init+1
  2472     02A4  30C6               	movlw	198
  2473     02A5  00F3               	movwf	??_init
  2474     02A6                     u957:
  2475     02A6  0BF3               	decfsz	??_init,f
  2476     02A7  2AA6               	goto	u957
  2477     02A8  0BF4               	decfsz	??_init+1,f
  2478     02A9  2AA6               	goto	u957
  2479     02AA  0000               	nop
  2480     02AB                     l1383:
  2481                           
  2482                           ;RTC_EEPROM_driver.c: 114:     lcd_cmd(0x38);
  2483     02AB  3038               	movlw	56
  2484     02AC  120A  158A  27C0  120A  118A  	fcall	_lcd_cmd
  2485     02B1                     l1385:
  2486                           
  2487                           ;RTC_EEPROM_driver.c: 115:     _delay((unsigned long)((4)*(16000000/4000.0)));
  2488     02B1  3015               	movlw	21
  2489     02B2  00F4               	movwf	??_init+1
  2490     02B3  30C6               	movlw	198
  2491     02B4  00F3               	movwf	??_init
  2492     02B5                     u967:
  2493     02B5  0BF3               	decfsz	??_init,f
  2494     02B6  2AB5               	goto	u967
  2495     02B7  0BF4               	decfsz	??_init+1,f
  2496     02B8  2AB5               	goto	u967
  2497     02B9  0000               	nop
  2498                           
  2499                           ;RTC_EEPROM_driver.c: 116:     lcd_cmd(0x0C);
  2500     02BA  300C               	movlw	12
  2501     02BB  120A  158A  27C0  120A  118A  	fcall	_lcd_cmd
  2502     02C0                     l1387:
  2503                           
  2504                           ;RTC_EEPROM_driver.c: 117:     _delay((unsigned long)((4)*(16000000/4000.0)));
  2505     02C0  3015               	movlw	21
  2506     02C1  00F4               	movwf	??_init+1
  2507     02C2  30C6               	movlw	198
  2508     02C3  00F3               	movwf	??_init
  2509     02C4                     u977:
  2510     02C4  0BF3               	decfsz	??_init,f
  2511     02C5  2AC4               	goto	u977
  2512     02C6  0BF4               	decfsz	??_init+1,f
  2513     02C7  2AC4               	goto	u977
  2514     02C8  0000               	nop
  2515     02C9                     l1389:
  2516                           
  2517                           ;RTC_EEPROM_driver.c: 118:     lcd_cmd(0x06);
  2518     02C9  3006               	movlw	6
  2519     02CA  120A  158A  27C0  120A  118A  	fcall	_lcd_cmd
  2520                           
  2521                           ;RTC_EEPROM_driver.c: 119:     _delay((unsigned long)((4)*(16000000/4000.0)));
  2522     02CF  3015               	movlw	21
  2523     02D0  00F4               	movwf	??_init+1
  2524     02D1  30C6               	movlw	198
  2525     02D2  00F3               	movwf	??_init
  2526     02D3                     u987:
  2527     02D3  0BF3               	decfsz	??_init,f
  2528     02D4  2AD3               	goto	u987
  2529     02D5  0BF4               	decfsz	??_init+1,f
  2530     02D6  2AD3               	goto	u987
  2531     02D7  0000               	nop
  2532     02D8                     l1391:
  2533                           
  2534                           ;RTC_EEPROM_driver.c: 120:     lcd_cmd(0x01);
  2535     02D8  3001               	movlw	1
  2536     02D9  120A  158A  27C0  120A  118A  	fcall	_lcd_cmd
  2537     02DE                     l1393:
  2538                           
  2539                           ;RTC_EEPROM_driver.c: 121:     _delay((unsigned long)((4)*(16000000/4000.0)));
  2540     02DE  3015               	movlw	21
  2541     02DF  00F4               	movwf	??_init+1
  2542     02E0  30C6               	movlw	198
  2543     02E1  00F3               	movwf	??_init
  2544     02E2                     u997:
  2545     02E2  0BF3               	decfsz	??_init,f
  2546     02E3  2AE2               	goto	u997
  2547     02E4  0BF4               	decfsz	??_init+1,f
  2548     02E5  2AE2               	goto	u997
  2549     02E6  0000               	nop
  2550     02E7                     l191:
  2551     02E7  0008               	return
  2552     02E8                     __end_of_init:
  2553                           
  2554                           	psect	text9
  2555     0FC0                     __ptext9:	
  2556 ;; *************** function _lcd_cmd *****************
  2557 ;; Defined at:
  2558 ;;		line 90 in file "RTC_EEPROM_driver.c"
  2559 ;; Parameters:    Size  Location     Type
  2560 ;;  i               1    wreg     unsigned char 
  2561 ;; Auto vars:     Size  Location     Type
  2562 ;;  i               1    2[COMMON] unsigned char 
  2563 ;; Return value:  Size  Location     Type
  2564 ;;                  1    wreg      void 
  2565 ;; Registers used:
  2566 ;;		wreg
  2567 ;; Tracked objects:
  2568 ;;		On entry : 0/0
  2569 ;;		On exit  : 0/0
  2570 ;;		Unchanged: 0/0
  2571 ;; Data sizes:     COMMON   BANK0   BANK1   BANK3   BANK2
  2572 ;;      Params:         0       0       0       0       0
  2573 ;;      Locals:         1       0       0       0       0
  2574 ;;      Temps:          2       0       0       0       0
  2575 ;;      Totals:         3       0       0       0       0
  2576 ;;Total ram usage:        3 bytes
  2577 ;; Hardware stack levels used: 1
  2578 ;; This function calls:
  2579 ;;		Nothing
  2580 ;; This function is called by:
  2581 ;;		_main
  2582 ;;		_init
  2583 ;; This function uses a non-reentrant model
  2584 ;;
  2585                           
  2586     0FC0                     _lcd_cmd:	
  2587                           ;psect for function _lcd_cmd
  2588                           
  2589                           
  2590                           ;incstack = 0
  2591                           ; Regs used in _lcd_cmd: [wreg]
  2592                           ;lcd_cmd@i stored from wreg
  2593     0FC0  00F2               	movwf	lcd_cmd@i
  2594     0FC1                     l1277:
  2595                           
  2596                           ;RTC_EEPROM_driver.c: 91:     RC1 = 0;
  2597     0FC1  1283               	bcf	3,5	;RP0=0, select bank0
  2598     0FC2  1303               	bcf	3,6	;RP1=0, select bank0
  2599     0FC3  1087               	bcf	7,1	;volatile
  2600     0FC4                     l1279:
  2601                           
  2602                           ;RTC_EEPROM_driver.c: 92:     PORTD = i;
  2603     0FC4  0872               	movf	lcd_cmd@i,w
  2604     0FC5  0088               	movwf	8	;volatile
  2605     0FC6                     l1281:
  2606                           
  2607                           ;RTC_EEPROM_driver.c: 93:     RC0 = 1;
  2608     0FC6  1407               	bsf	7,0	;volatile
  2609                           
  2610                           ;RTC_EEPROM_driver.c: 94:     _delay((unsigned long)((5)*(16000000/4000.0)));
  2611     0FC7  301A               	movlw	26
  2612     0FC8  00F1               	movwf	??_lcd_cmd+1
  2613     0FC9  30F8               	movlw	248
  2614     0FCA  00F0               	movwf	??_lcd_cmd
  2615     0FCB                     u1007:
  2616     0FCB  0BF0               	decfsz	??_lcd_cmd,f
  2617     0FCC  2FCB               	goto	u1007
  2618     0FCD  0BF1               	decfsz	??_lcd_cmd+1,f
  2619     0FCE  2FCB               	goto	u1007
  2620     0FCF  0000               	nop
  2621     0FD0                     l1283:
  2622                           
  2623                           ;RTC_EEPROM_driver.c: 95:     RC0 = 0;
  2624     0FD0  1283               	bcf	3,5	;RP0=0, select bank0
  2625     0FD1  1303               	bcf	3,6	;RP1=0, select bank0
  2626     0FD2  1007               	bcf	7,0	;volatile
  2627     0FD3                     l185:
  2628     0FD3  0008               	return
  2629     0FD4                     __end_of_lcd_cmd:
  2630                           
  2631                           	psect	text10
  2632     00D9                     __ptext10:	
  2633 ;; *************** function _i2c_init *****************
  2634 ;; Defined at:
  2635 ;;		line 9 in file "RTC_EEPROM_driver.c"
  2636 ;; Parameters:    Size  Location     Type
  2637 ;;  baud            4    0[BANK0 ] const unsigned long 
  2638 ;; Auto vars:     Size  Location     Type
  2639 ;;		None
  2640 ;; Return value:  Size  Location     Type
  2641 ;;                  1    wreg      void 
  2642 ;; Registers used:
  2643 ;;		wreg, status,2, status,0, btemp+1, pclath, cstack
  2644 ;; Tracked objects:
  2645 ;;		On entry : 0/0
  2646 ;;		On exit  : 0/0
  2647 ;;		Unchanged: 0/0
  2648 ;; Data sizes:     COMMON   BANK0   BANK1   BANK3   BANK2
  2649 ;;      Params:         0       4       0       0       0
  2650 ;;      Locals:         0       0       0       0       0
  2651 ;;      Temps:          0       4       0       0       0
  2652 ;;      Totals:         0       8       0       0       0
  2653 ;;Total ram usage:        8 bytes
  2654 ;; Hardware stack levels used: 1
  2655 ;; Hardware stack levels required when called: 1
  2656 ;; This function calls:
  2657 ;;		___lldiv
  2658 ;; This function is called by:
  2659 ;;		_main
  2660 ;; This function uses a non-reentrant model
  2661 ;;
  2662                           
  2663     00D9                     _i2c_init:	
  2664                           ;psect for function _i2c_init
  2665                           
  2666     00D9                     l1359:	
  2667                           ;incstack = 0
  2668                           ; Regs used in _i2c_init: [wreg+status,2+status,0+btemp+1+pclath+cstack]
  2669                           
  2670                           
  2671                           ;RTC_EEPROM_driver.c: 10:   SSPCON = 0b00101000;
  2672     00D9  3028               	movlw	40
  2673     00DA  1283               	bcf	3,5	;RP0=0, select bank0
  2674     00DB  1303               	bcf	3,6	;RP1=0, select bank0
  2675     00DC  0094               	movwf	20	;volatile
  2676     00DD                     l1361:
  2677                           
  2678                           ;RTC_EEPROM_driver.c: 11:   SSPCON2 = 0;
  2679     00DD  1683               	bsf	3,5	;RP0=1, select bank1
  2680     00DE  1303               	bcf	3,6	;RP1=0, select bank1
  2681     00DF  0191               	clrf	17	;volatile
  2682     00E0                     l1363:
  2683                           
  2684                           ;RTC_EEPROM_driver.c: 12:   SSPADD = (16000000/(4*baud))-1;
  2685     00E0  1283               	bcf	3,5	;RP0=0, select bank0
  2686     00E1  1303               	bcf	3,6	;RP1=0, select bank0
  2687     00E2  0840               	movf	i2c_init@baud,w
  2688     00E3  00C4               	movwf	??_i2c_init
  2689     00E4  0841               	movf	i2c_init@baud+1,w
  2690     00E5  00C5               	movwf	??_i2c_init+1
  2691     00E6  0842               	movf	i2c_init@baud+2,w
  2692     00E7  00C6               	movwf	??_i2c_init+2
  2693     00E8  0843               	movf	i2c_init@baud+3,w
  2694     00E9  00C7               	movwf	??_i2c_init+3
  2695     00EA  3002               	movlw	2
  2696     00EB                     u795:
  2697     00EB  1003               	clrc
  2698     00EC  0DC4               	rlf	??_i2c_init,f
  2699     00ED  0DC5               	rlf	??_i2c_init+1,f
  2700     00EE  0DC6               	rlf	??_i2c_init+2,f
  2701     00EF  0DC7               	rlf	??_i2c_init+3,f
  2702     00F0                     u790:
  2703     00F0  3EFF               	addlw	-1
  2704     00F1  1D03               	skipz
  2705     00F2  28EB               	goto	u795
  2706     00F3  0847               	movf	??_i2c_init+3,w
  2707     00F4  00F3               	movwf	___lldiv@divisor+3
  2708     00F5  0846               	movf	??_i2c_init+2,w
  2709     00F6  00F2               	movwf	___lldiv@divisor+2
  2710     00F7  0845               	movf	??_i2c_init+1,w
  2711     00F8  00F1               	movwf	___lldiv@divisor+1
  2712     00F9  0844               	movf	??_i2c_init,w
  2713     00FA  00F0               	movwf	___lldiv@divisor
  2714     00FB  3000               	movlw	0
  2715     00FC  00F7               	movwf	___lldiv@dividend+3
  2716     00FD  30F4               	movlw	244
  2717     00FE  00F6               	movwf	___lldiv@dividend+2
  2718     00FF  3024               	movlw	36
  2719     0100  00F5               	movwf	___lldiv@dividend+1
  2720     0101  3000               	movlw	0
  2721     0102  00F4               	movwf	___lldiv@dividend
  2722     0103  120A  118A  21A7  120A  118A  	fcall	___lldiv
  2723     0108  0870               	movf	?___lldiv,w
  2724     0109  3EFF               	addlw	255
  2725     010A  1683               	bsf	3,5	;RP0=1, select bank1
  2726     010B  1303               	bcf	3,6	;RP1=0, select bank1
  2727     010C  0093               	movwf	19	;volatile
  2728     010D                     l1365:
  2729                           
  2730                           ;RTC_EEPROM_driver.c: 13:   SSPSTAT = 0;
  2731     010D  0194               	clrf	20	;volatile
  2732     010E                     l1367:
  2733                           
  2734                           ;RTC_EEPROM_driver.c: 14:   TRISC = 0X18;
  2735     010E  3018               	movlw	24
  2736     010F  0087               	movwf	7	;volatile
  2737     0110                     l137:
  2738     0110  0008               	return
  2739     0111                     __end_of_i2c_init:
  2740                           
  2741                           	psect	text11
  2742     01A7                     __ptext11:	
  2743 ;; *************** function ___lldiv *****************
  2744 ;; Defined at:
  2745 ;;		line 5 in file "C:\Program Files\Microchip\xc8\v2.45\pic\sources\c99\common\__lldiv.c"
  2746 ;; Parameters:    Size  Location     Type
  2747 ;;  divisor         4    0[COMMON] unsigned long 
  2748 ;;  dividend        4    4[COMMON] unsigned long 
  2749 ;; Auto vars:     Size  Location     Type
  2750 ;;  quotient        4    9[COMMON] unsigned long 
  2751 ;;  counter         1   13[COMMON] unsigned char 
  2752 ;; Return value:  Size  Location     Type
  2753 ;;                  4    0[COMMON] unsigned long 
  2754 ;; Registers used:
  2755 ;;		wreg, status,2, status,0, btemp+1
  2756 ;; Tracked objects:
  2757 ;;		On entry : 0/0
  2758 ;;		On exit  : 0/0
  2759 ;;		Unchanged: 0/0
  2760 ;; Data sizes:     COMMON   BANK0   BANK1   BANK3   BANK2
  2761 ;;      Params:         8       0       0       0       0
  2762 ;;      Locals:         5       0       0       0       0
  2763 ;;      Temps:          1       0       0       0       0
  2764 ;;      Totals:        14       0       0       0       0
  2765 ;;Total ram usage:       14 bytes
  2766 ;; Hardware stack levels used: 1
  2767 ;; This function calls:
  2768 ;;		Nothing
  2769 ;; This function is called by:
  2770 ;;		_i2c_init
  2771 ;; This function uses a non-reentrant model
  2772 ;;
  2773                           
  2774     01A7                     ___lldiv:	
  2775                           ;psect for function ___lldiv
  2776                           
  2777     01A7                     l1333:	
  2778                           ;incstack = 0
  2779                           ; Regs used in ___lldiv: [wreg+status,2+status,0+btemp+1]
  2780                           
  2781     01A7  3000               	movlw	0
  2782     01A8  00FC               	movwf	___lldiv@quotient+3
  2783     01A9  3000               	movlw	0
  2784     01AA  00FB               	movwf	___lldiv@quotient+2
  2785     01AB  3000               	movlw	0
  2786     01AC  00FA               	movwf	___lldiv@quotient+1
  2787     01AD  3000               	movlw	0
  2788     01AE  00F9               	movwf	___lldiv@quotient
  2789     01AF  0873               	movf	___lldiv@divisor+3,w
  2790     01B0  0472               	iorwf	___lldiv@divisor+2,w
  2791     01B1  0471               	iorwf	___lldiv@divisor+1,w
  2792     01B2  0470               	iorwf	___lldiv@divisor,w
  2793     01B3  1903               	skipnz
  2794     01B4  29B6               	goto	u721
  2795     01B5  29B7               	goto	u720
  2796     01B6                     u721:
  2797     01B6  2A04               	goto	l1355
  2798     01B7                     u720:
  2799     01B7                     l1335:
  2800     01B7  01FD               	clrf	___lldiv@counter
  2801     01B8  0AFD               	incf	___lldiv@counter,f
  2802     01B9  29C7               	goto	l1341
  2803     01BA                     l1337:
  2804     01BA  3001               	movlw	1
  2805     01BB  00F8               	movwf	??___lldiv
  2806     01BC                     u735:
  2807     01BC  1003               	clrc
  2808     01BD  0DF0               	rlf	___lldiv@divisor,f
  2809     01BE  0DF1               	rlf	___lldiv@divisor+1,f
  2810     01BF  0DF2               	rlf	___lldiv@divisor+2,f
  2811     01C0  0DF3               	rlf	___lldiv@divisor+3,f
  2812     01C1  0BF8               	decfsz	??___lldiv,f
  2813     01C2  29BC               	goto	u735
  2814     01C3                     l1339:
  2815     01C3  3001               	movlw	1
  2816     01C4  00FF               	movwf	btemp+1
  2817     01C5  087F               	movf	btemp+1,w
  2818     01C6  07FD               	addwf	___lldiv@counter,f
  2819     01C7                     l1341:
  2820     01C7  1FF3               	btfss	___lldiv@divisor+3,7
  2821     01C8  29CA               	goto	u741
  2822     01C9  29CB               	goto	u740
  2823     01CA                     u741:
  2824     01CA  29BA               	goto	l1337
  2825     01CB                     u740:
  2826     01CB                     l1343:
  2827     01CB  3001               	movlw	1
  2828     01CC  00F8               	movwf	??___lldiv
  2829     01CD                     u755:
  2830     01CD  1003               	clrc
  2831     01CE  0DF9               	rlf	___lldiv@quotient,f
  2832     01CF  0DFA               	rlf	___lldiv@quotient+1,f
  2833     01D0  0DFB               	rlf	___lldiv@quotient+2,f
  2834     01D1  0DFC               	rlf	___lldiv@quotient+3,f
  2835     01D2  0BF8               	decfsz	??___lldiv,f
  2836     01D3  29CD               	goto	u755
  2837     01D4                     l1345:
  2838     01D4  0873               	movf	___lldiv@divisor+3,w
  2839     01D5  0277               	subwf	___lldiv@dividend+3,w
  2840     01D6  1D03               	skipz
  2841     01D7  29E2               	goto	u765
  2842     01D8  0872               	movf	___lldiv@divisor+2,w
  2843     01D9  0276               	subwf	___lldiv@dividend+2,w
  2844     01DA  1D03               	skipz
  2845     01DB  29E2               	goto	u765
  2846     01DC  0871               	movf	___lldiv@divisor+1,w
  2847     01DD  0275               	subwf	___lldiv@dividend+1,w
  2848     01DE  1D03               	skipz
  2849     01DF  29E2               	goto	u765
  2850     01E0  0870               	movf	___lldiv@divisor,w
  2851     01E1  0274               	subwf	___lldiv@dividend,w
  2852     01E2                     u765:
  2853     01E2  1C03               	skipc
  2854     01E3  29E5               	goto	u761
  2855     01E4  29E6               	goto	u760
  2856     01E5                     u761:
  2857     01E5  29F5               	goto	l1351
  2858     01E6                     u760:
  2859     01E6                     l1347:
  2860     01E6  0870               	movf	___lldiv@divisor,w
  2861     01E7  02F4               	subwf	___lldiv@dividend,f
  2862     01E8  0871               	movf	___lldiv@divisor+1,w
  2863     01E9  1C03               	skipc
  2864     01EA  0F71               	incfsz	___lldiv@divisor+1,w
  2865     01EB  02F5               	subwf	___lldiv@dividend+1,f
  2866     01EC  0872               	movf	___lldiv@divisor+2,w
  2867     01ED  1C03               	skipc
  2868     01EE  0F72               	incfsz	___lldiv@divisor+2,w
  2869     01EF  02F6               	subwf	___lldiv@dividend+2,f
  2870     01F0  0873               	movf	___lldiv@divisor+3,w
  2871     01F1  1C03               	skipc
  2872     01F2  0F73               	incfsz	___lldiv@divisor+3,w
  2873     01F3  02F7               	subwf	___lldiv@dividend+3,f
  2874     01F4                     l1349:
  2875     01F4  1479               	bsf	___lldiv@quotient,0
  2876     01F5                     l1351:
  2877     01F5  3001               	movlw	1
  2878     01F6                     u775:
  2879     01F6  1003               	clrc
  2880     01F7  0CF3               	rrf	___lldiv@divisor+3,f
  2881     01F8  0CF2               	rrf	___lldiv@divisor+2,f
  2882     01F9  0CF1               	rrf	___lldiv@divisor+1,f
  2883     01FA  0CF0               	rrf	___lldiv@divisor,f
  2884     01FB  3EFF               	addlw	-1
  2885     01FC  1D03               	skipz
  2886     01FD  29F6               	goto	u775
  2887     01FE                     l1353:
  2888     01FE  3001               	movlw	1
  2889     01FF  02FD               	subwf	___lldiv@counter,f
  2890     0200  1D03               	btfss	3,2
  2891     0201  2A03               	goto	u781
  2892     0202  2A04               	goto	u780
  2893     0203                     u781:
  2894     0203  29CB               	goto	l1343
  2895     0204                     u780:
  2896     0204                     l1355:
  2897     0204  087C               	movf	___lldiv@quotient+3,w
  2898     0205  00F3               	movwf	?___lldiv+3
  2899     0206  087B               	movf	___lldiv@quotient+2,w
  2900     0207  00F2               	movwf	?___lldiv+2
  2901     0208  087A               	movf	___lldiv@quotient+1,w
  2902     0209  00F1               	movwf	?___lldiv+1
  2903     020A  0879               	movf	___lldiv@quotient,w
  2904     020B  00F0               	movwf	?___lldiv
  2905     020C                     l337:
  2906     020C  0008               	return
  2907     020D                     __end_of___lldiv:
  2908                           
  2909                           	psect	text12
  2910     0377                     __ptext12:	
  2911 ;; *************** function _days *****************
  2912 ;; Defined at:
  2913 ;;		line 124 in file "RTC_EEPROM_driver.c"
  2914 ;; Parameters:    Size  Location     Type
  2915 ;;  day             2    3[COMMON] int 
  2916 ;; Auto vars:     Size  Location     Type
  2917 ;;		None
  2918 ;; Return value:  Size  Location     Type
  2919 ;;                  1    wreg      void 
  2920 ;; Registers used:
  2921 ;;		wreg, fsr0l, fsr0h, status,2, status,0, pclath, cstack
  2922 ;; Tracked objects:
  2923 ;;		On entry : 0/0
  2924 ;;		On exit  : 0/0
  2925 ;;		Unchanged: 0/0
  2926 ;; Data sizes:     COMMON   BANK0   BANK1   BANK3   BANK2
  2927 ;;      Params:         2       0       0       0       0
  2928 ;;      Locals:         0       0       0       0       0
  2929 ;;      Temps:          0       0       0       0       0
  2930 ;;      Totals:         2       0       0       0       0
  2931 ;;Total ram usage:        2 bytes
  2932 ;; Hardware stack levels used: 1
  2933 ;; Hardware stack levels required when called: 1
  2934 ;; This function calls:
  2935 ;;		_lcd_data
  2936 ;; This function is called by:
  2937 ;;		_main
  2938 ;; This function uses a non-reentrant model
  2939 ;;
  2940                           
  2941     0377                     _days:	
  2942                           ;psect for function _days
  2943                           
  2944     0377                     l1429:	
  2945                           ;incstack = 0
  2946                           ; Regs used in _days: [wreg-fsr0h+status,2+status,0+pclath+cstack]
  2947                           
  2948                           
  2949                           ;RTC_EEPROM_driver.c: 125:     switch(day) {
  2950     0377  2C27               	goto	l1447
  2951     0378                     l1431:
  2952                           
  2953                           ;RTC_EEPROM_driver.c: 127:                 lcd_data(' '); lcd_data('S');
  2954     0378  3020               	movlw	32
  2955     0379  120A  158A  27AC  120A  118A  	fcall	_lcd_data
  2956     037E  3053               	movlw	83
  2957     037F  120A  158A  27AC  120A  118A  	fcall	_lcd_data
  2958                           
  2959                           ;RTC_EEPROM_driver.c: 128:                 lcd_data('U'); lcd_data('N');
  2960     0384  3055               	movlw	85
  2961     0385  120A  158A  27AC  120A  118A  	fcall	_lcd_data
  2962     038A  304E               	movlw	78
  2963     038B  120A  158A  27AC  120A  118A  	fcall	_lcd_data
  2964                           
  2965                           ;RTC_EEPROM_driver.c: 129:                 break;
  2966     0390  2C43               	goto	l203
  2967     0391                     l1433:
  2968                           
  2969                           ;RTC_EEPROM_driver.c: 131:                 lcd_data(' '); lcd_data('M');
  2970     0391  3020               	movlw	32
  2971     0392  120A  158A  27AC  120A  118A  	fcall	_lcd_data
  2972     0397  304D               	movlw	77
  2973     0398  120A  158A  27AC  120A  118A  	fcall	_lcd_data
  2974                           
  2975                           ;RTC_EEPROM_driver.c: 132:                 lcd_data('O'); lcd_data('N');
  2976     039D  304F               	movlw	79
  2977     039E  120A  158A  27AC  120A  118A  	fcall	_lcd_data
  2978     03A3  304E               	movlw	78
  2979     03A4  120A  158A  27AC  120A  118A  	fcall	_lcd_data
  2980                           
  2981                           ;RTC_EEPROM_driver.c: 133:                 break;
  2982     03A9  2C43               	goto	l203
  2983     03AA                     l1435:
  2984                           
  2985                           ;RTC_EEPROM_driver.c: 135:                 lcd_data(' '); lcd_data('T');
  2986     03AA  3020               	movlw	32
  2987     03AB  120A  158A  27AC  120A  118A  	fcall	_lcd_data
  2988     03B0  3054               	movlw	84
  2989     03B1  120A  158A  27AC  120A  118A  	fcall	_lcd_data
  2990                           
  2991                           ;RTC_EEPROM_driver.c: 136:                 lcd_data('U'); lcd_data('E');
  2992     03B6  3055               	movlw	85
  2993     03B7  120A  158A  27AC  120A  118A  	fcall	_lcd_data
  2994     03BC  3045               	movlw	69
  2995     03BD  120A  158A  27AC  120A  118A  	fcall	_lcd_data
  2996                           
  2997                           ;RTC_EEPROM_driver.c: 137:                 break;
  2998     03C2  2C43               	goto	l203
  2999     03C3                     l1437:
  3000                           
  3001                           ;RTC_EEPROM_driver.c: 139:                 lcd_data(' '); lcd_data('W');
  3002     03C3  3020               	movlw	32
  3003     03C4  120A  158A  27AC  120A  118A  	fcall	_lcd_data
  3004     03C9  3057               	movlw	87
  3005     03CA  120A  158A  27AC  120A  118A  	fcall	_lcd_data
  3006                           
  3007                           ;RTC_EEPROM_driver.c: 140:                 lcd_data('E'); lcd_data('D');
  3008     03CF  3045               	movlw	69
  3009     03D0  120A  158A  27AC  120A  118A  	fcall	_lcd_data
  3010     03D5  3044               	movlw	68
  3011     03D6  120A  158A  27AC  120A  118A  	fcall	_lcd_data
  3012                           
  3013                           ;RTC_EEPROM_driver.c: 141:                 break;
  3014     03DB  2C43               	goto	l203
  3015     03DC                     l1439:
  3016                           
  3017                           ;RTC_EEPROM_driver.c: 143:                 lcd_data(' '); lcd_data('T');
  3018     03DC  3020               	movlw	32
  3019     03DD  120A  158A  27AC  120A  118A  	fcall	_lcd_data
  3020     03E2  3054               	movlw	84
  3021     03E3  120A  158A  27AC  120A  118A  	fcall	_lcd_data
  3022                           
  3023                           ;RTC_EEPROM_driver.c: 144:                 lcd_data('H'); lcd_data('U');
  3024     03E8  3048               	movlw	72
  3025     03E9  120A  158A  27AC  120A  118A  	fcall	_lcd_data
  3026     03EE  3055               	movlw	85
  3027     03EF  120A  158A  27AC  120A  118A  	fcall	_lcd_data
  3028                           
  3029                           ;RTC_EEPROM_driver.c: 145:                 break;
  3030     03F4  2C43               	goto	l203
  3031     03F5                     l1441:
  3032                           
  3033                           ;RTC_EEPROM_driver.c: 147:                 lcd_data(' '); lcd_data('F');
  3034     03F5  3020               	movlw	32
  3035     03F6  120A  158A  27AC  120A  118A  	fcall	_lcd_data
  3036     03FB  3046               	movlw	70
  3037     03FC  120A  158A  27AC  120A  118A  	fcall	_lcd_data
  3038                           
  3039                           ;RTC_EEPROM_driver.c: 148:                 lcd_data('R'); lcd_data('I');
  3040     0401  3052               	movlw	82
  3041     0402  120A  158A  27AC  120A  118A  	fcall	_lcd_data
  3042     0407  3049               	movlw	73
  3043     0408  120A  158A  27AC  120A  118A  	fcall	_lcd_data
  3044                           
  3045                           ;RTC_EEPROM_driver.c: 149:                 break;
  3046     040D  2C43               	goto	l203
  3047     040E                     l1443:
  3048                           
  3049                           ;RTC_EEPROM_driver.c: 151:                 lcd_data(' '); lcd_data('S');
  3050     040E  3020               	movlw	32
  3051     040F  120A  158A  27AC  120A  118A  	fcall	_lcd_data
  3052     0414  3053               	movlw	83
  3053     0415  120A  158A  27AC  120A  118A  	fcall	_lcd_data
  3054                           
  3055                           ;RTC_EEPROM_driver.c: 152:                 lcd_data('A'); lcd_data('T');
  3056     041A  3041               	movlw	65
  3057     041B  120A  158A  27AC  120A  118A  	fcall	_lcd_data
  3058     0420  3054               	movlw	84
  3059     0421  120A  158A  27AC  120A  118A  	fcall	_lcd_data
  3060                           
  3061                           ;RTC_EEPROM_driver.c: 153:                 break;
  3062     0426  2C43               	goto	l203
  3063     0427                     l1447:
  3064                           
  3065                           ; Switch on 2 bytes has been partitioned into a top level switch of size 1, and 1 sub-sw
      +                          itches
  3066                           ; Switch size 1, requested type "simple"
  3067                           ; Number of cases is 1, Range of values is 0 to 0
  3068                           ; switch strategies available:
  3069                           ; Name         Instructions Cycles
  3070                           ; simple_byte            4     3 (average)
  3071                           ; direct_byte           11     8 (fixed)
  3072                           ; jumptable            260     6 (fixed)
  3073                           ;	Chosen strategy is simple_byte
  3074     0427  0874               	movf	days@day+1,w
  3075     0428  3A00               	xorlw	0	; case 0
  3076     0429  1903               	skipnz
  3077     042A  2C2C               	goto	l1587
  3078     042B  2C43               	goto	l203
  3079     042C                     l1587:
  3080                           
  3081                           ; Switch size 1, requested type "simple"
  3082                           ; Number of cases is 7, Range of values is 1 to 7
  3083                           ; switch strategies available:
  3084                           ; Name         Instructions Cycles
  3085                           ; simple_byte           22    12 (average)
  3086                           ; direct_byte           32    11 (fixed)
  3087                           ; jumptable            263     9 (fixed)
  3088                           ;	Chosen strategy is simple_byte
  3089     042C  0873               	movf	days@day,w
  3090     042D  3A01               	xorlw	1	; case 1
  3091     042E  1903               	skipnz
  3092     042F  2B78               	goto	l1431
  3093     0430  3A03               	xorlw	3	; case 2
  3094     0431  1903               	skipnz
  3095     0432  2B91               	goto	l1433
  3096     0433  3A01               	xorlw	1	; case 3
  3097     0434  1903               	skipnz
  3098     0435  2BAA               	goto	l1435
  3099     0436  3A07               	xorlw	7	; case 4
  3100     0437  1903               	skipnz
  3101     0438  2BC3               	goto	l1437
  3102     0439  3A01               	xorlw	1	; case 5
  3103     043A  1903               	skipnz
  3104     043B  2BDC               	goto	l1439
  3105     043C  3A03               	xorlw	3	; case 6
  3106     043D  1903               	skipnz
  3107     043E  2BF5               	goto	l1441
  3108     043F  3A01               	xorlw	1	; case 7
  3109     0440  1903               	skipnz
  3110     0441  2C0E               	goto	l1443
  3111     0442  2C43               	goto	l203
  3112     0443                     l203:
  3113     0443  0008               	return
  3114     0444                     __end_of_days:
  3115                           
  3116                           	psect	text13
  3117     0FAC                     __ptext13:	
  3118 ;; *************** function _lcd_data *****************
  3119 ;; Defined at:
  3120 ;;		line 97 in file "RTC_EEPROM_driver.c"
  3121 ;; Parameters:    Size  Location     Type
  3122 ;;  i               1    wreg     unsigned char 
  3123 ;; Auto vars:     Size  Location     Type
  3124 ;;  i               1    2[COMMON] unsigned char 
  3125 ;; Return value:  Size  Location     Type
  3126 ;;                  1    wreg      void 
  3127 ;; Registers used:
  3128 ;;		wreg
  3129 ;; Tracked objects:
  3130 ;;		On entry : 0/0
  3131 ;;		On exit  : 0/0
  3132 ;;		Unchanged: 0/0
  3133 ;; Data sizes:     COMMON   BANK0   BANK1   BANK3   BANK2
  3134 ;;      Params:         0       0       0       0       0
  3135 ;;      Locals:         1       0       0       0       0
  3136 ;;      Temps:          2       0       0       0       0
  3137 ;;      Totals:         3       0       0       0       0
  3138 ;;Total ram usage:        3 bytes
  3139 ;; Hardware stack levels used: 1
  3140 ;; This function calls:
  3141 ;;		Nothing
  3142 ;; This function is called by:
  3143 ;;		_main
  3144 ;;		_days
  3145 ;; This function uses a non-reentrant model
  3146 ;;
  3147                           
  3148     0FAC                     _lcd_data:	
  3149                           ;psect for function _lcd_data
  3150                           
  3151                           
  3152                           ;incstack = 0
  3153                           ; Regs used in _lcd_data: [wreg]
  3154                           ;lcd_data@i stored from wreg
  3155     0FAC  00F2               	movwf	lcd_data@i
  3156     0FAD                     l1285:
  3157                           
  3158                           ;RTC_EEPROM_driver.c: 98:     RC1 = 1;
  3159     0FAD  1283               	bcf	3,5	;RP0=0, select bank0
  3160     0FAE  1303               	bcf	3,6	;RP1=0, select bank0
  3161     0FAF  1487               	bsf	7,1	;volatile
  3162     0FB0                     l1287:
  3163                           
  3164                           ;RTC_EEPROM_driver.c: 99:     PORTD = i;
  3165     0FB0  0872               	movf	lcd_data@i,w
  3166     0FB1  0088               	movwf	8	;volatile
  3167     0FB2                     l1289:
  3168                           
  3169                           ;RTC_EEPROM_driver.c: 100:     RC0 = 1;
  3170     0FB2  1407               	bsf	7,0	;volatile
  3171                           
  3172                           ;RTC_EEPROM_driver.c: 101:     _delay((unsigned long)((5)*(16000000/4000.0)));
  3173     0FB3  301A               	movlw	26
  3174     0FB4  00F1               	movwf	??_lcd_data+1
  3175     0FB5  30F8               	movlw	248
  3176     0FB6  00F0               	movwf	??_lcd_data
  3177     0FB7                     u1017:
  3178     0FB7  0BF0               	decfsz	??_lcd_data,f
  3179     0FB8  2FB7               	goto	u1017
  3180     0FB9  0BF1               	decfsz	??_lcd_data+1,f
  3181     0FBA  2FB7               	goto	u1017
  3182     0FBB  0000               	nop
  3183     0FBC                     l1291:
  3184                           
  3185                           ;RTC_EEPROM_driver.c: 102:     RC0 = 0;
  3186     0FBC  1283               	bcf	3,5	;RP0=0, select bank0
  3187     0FBD  1303               	bcf	3,6	;RP1=0, select bank0
  3188     0FBE  1007               	bcf	7,0	;volatile
  3189     0FBF                     l188:
  3190     0FBF  0008               	return
  3191     0FC0                     __end_of_lcd_data:
  3192                           
  3193                           	psect	text14
  3194     007B                     __ptext14:	
  3195 ;; *************** function _EEPROM_Write *****************
  3196 ;; Defined at:
  3197 ;;		line 65 in file "RTC_EEPROM_driver.c"
  3198 ;; Parameters:    Size  Location     Type
  3199 ;;  add             2    1[COMMON] unsigned int 
  3200 ;;  data            1    3[COMMON] unsigned char 
  3201 ;; Auto vars:     Size  Location     Type
  3202 ;;		None
  3203 ;; Return value:  Size  Location     Type
  3204 ;;                  1    wreg      void 
  3205 ;; Registers used:
  3206 ;;		wreg, status,2, status,0, pclath, cstack
  3207 ;; Tracked objects:
  3208 ;;		On entry : 0/0
  3209 ;;		On exit  : 0/0
  3210 ;;		Unchanged: 0/0
  3211 ;; Data sizes:     COMMON   BANK0   BANK1   BANK3   BANK2
  3212 ;;      Params:         3       0       0       0       0
  3213 ;;      Locals:         0       0       0       0       0
  3214 ;;      Temps:          0       0       0       0       0
  3215 ;;      Totals:         3       0       0       0       0
  3216 ;;Total ram usage:        3 bytes
  3217 ;; Hardware stack levels used: 1
  3218 ;; Hardware stack levels required when called: 2
  3219 ;; This function calls:
  3220 ;;		_i2c_rep_start
  3221 ;;		_i2c_start
  3222 ;;		_i2c_stop
  3223 ;;		_i2c_write
  3224 ;; This function is called by:
  3225 ;;		_main
  3226 ;; This function uses a non-reentrant model
  3227 ;;
  3228                           
  3229     007B                     _EEPROM_Write:	
  3230                           ;psect for function _EEPROM_Write
  3231                           
  3232     007B                     l1413:	
  3233                           ;incstack = 0
  3234                           ; Regs used in _EEPROM_Write: [wreg+status,2+status,0+pclath+cstack]
  3235                           
  3236                           
  3237                           ;RTC_EEPROM_driver.c: 66:   i2c_start();
  3238     007B  120A  158A  277B  120A  118A  	fcall	_i2c_start
  3239                           
  3240                           ;RTC_EEPROM_driver.c: 67:   while(i2c_write(0xA0))
  3241     0080  2886               	goto	l173
  3242     0081                     l1415:
  3243                           
  3244                           ;RTC_EEPROM_driver.c: 68:     i2c_rep_start();
  3245     0081  120A  158A  2772  120A  118A  	fcall	_i2c_rep_start
  3246     0086                     l173:
  3247                           
  3248                           ;RTC_EEPROM_driver.c: 67:   while(i2c_write(0xA0))
  3249     0086  30A0               	movlw	160
  3250     0087  120A  158A  27D4  120A  118A  	fcall	_i2c_write
  3251     008C  3A00               	xorlw	0
  3252     008D  1D03               	skipz
  3253     008E  2890               	goto	u801
  3254     008F  2891               	goto	u800
  3255     0090                     u801:
  3256     0090  2881               	goto	l1415
  3257     0091                     u800:
  3258     0091                     l1417:
  3259                           
  3260                           ;RTC_EEPROM_driver.c: 69:   i2c_write(add>>8);
  3261     0091  0872               	movf	EEPROM_Write@add+1,w
  3262     0092  120A  158A  27D4  120A  118A  	fcall	_i2c_write
  3263                           
  3264                           ;RTC_EEPROM_driver.c: 70:   i2c_write((unsigned char)add);
  3265     0097  0871               	movf	EEPROM_Write@add,w
  3266     0098  120A  158A  27D4  120A  118A  	fcall	_i2c_write
  3267                           
  3268                           ;RTC_EEPROM_driver.c: 71:   i2c_write(data);
  3269     009D  0873               	movf	EEPROM_Write@data,w
  3270     009E  120A  158A  27D4  120A  118A  	fcall	_i2c_write
  3271                           
  3272                           ;RTC_EEPROM_driver.c: 72:   i2c_stop();
  3273     00A3  120A  158A  2784  120A  118A  	fcall	_i2c_stop
  3274     00A8                     l176:
  3275     00A8  0008               	return
  3276     00A9                     __end_of_EEPROM_Write:
  3277                           
  3278                           	psect	text15
  3279     0111                     __ptext15:	
  3280 ;; *************** function _EEPROM_Read *****************
  3281 ;; Defined at:
  3282 ;;		line 75 in file "RTC_EEPROM_driver.c"
  3283 ;; Parameters:    Size  Location     Type
  3284 ;;  add             2    1[COMMON] unsigned int 
  3285 ;; Auto vars:     Size  Location     Type
  3286 ;;  Data            1    0        unsigned char 
  3287 ;; Return value:  Size  Location     Type
  3288 ;;                  1    wreg      unsigned char 
  3289 ;; Registers used:
  3290 ;;		wreg, status,2, status,0, pclath, cstack
  3291 ;; Tracked objects:
  3292 ;;		On entry : 0/0
  3293 ;;		On exit  : 0/0
  3294 ;;		Unchanged: 0/0
  3295 ;; Data sizes:     COMMON   BANK0   BANK1   BANK3   BANK2
  3296 ;;      Params:         2       0       0       0       0
  3297 ;;      Locals:         0       0       0       0       0
  3298 ;;      Temps:          0       0       0       0       0
  3299 ;;      Totals:         2       0       0       0       0
  3300 ;;Total ram usage:        2 bytes
  3301 ;; Hardware stack levels used: 1
  3302 ;; Hardware stack levels required when called: 2
  3303 ;; This function calls:
  3304 ;;		_I2C_NACK
  3305 ;;		_i2c_read
  3306 ;;		_i2c_rep_start
  3307 ;;		_i2c_start
  3308 ;;		_i2c_stop
  3309 ;;		_i2c_write
  3310 ;; This function is called by:
  3311 ;;		_main
  3312 ;; This function uses a non-reentrant model
  3313 ;;
  3314                           
  3315     0111                     _EEPROM_Read:	
  3316                           ;psect for function _EEPROM_Read
  3317                           
  3318     0111                     l1419:	
  3319                           ;incstack = 0
  3320                           ; Regs used in _EEPROM_Read: [wreg+status,2+status,0+pclath+cstack]
  3321                           
  3322                           
  3323                           ;RTC_EEPROM_driver.c: 76:   unsigned char Data;;RTC_EEPROM_driver.c: 77:   i2c_start();
  3324     0111  120A  158A  277B  120A  118A  	fcall	_i2c_start
  3325                           
  3326                           ;RTC_EEPROM_driver.c: 78:   while(i2c_write(0xA0))
  3327     0116  291C               	goto	l179
  3328     0117                     l1421:
  3329                           
  3330                           ;RTC_EEPROM_driver.c: 79:     i2c_rep_start();
  3331     0117  120A  158A  2772  120A  118A  	fcall	_i2c_rep_start
  3332     011C                     l179:
  3333                           
  3334                           ;RTC_EEPROM_driver.c: 78:   while(i2c_write(0xA0))
  3335     011C  30A0               	movlw	160
  3336     011D  120A  158A  27D4  120A  118A  	fcall	_i2c_write
  3337     0122  3A00               	xorlw	0
  3338     0123  1D03               	skipz
  3339     0124  2926               	goto	u811
  3340     0125  2927               	goto	u810
  3341     0126                     u811:
  3342     0126  2917               	goto	l1421
  3343     0127                     u810:
  3344     0127                     l1423:
  3345                           
  3346                           ;RTC_EEPROM_driver.c: 80:   i2c_write(add>>8);
  3347     0127  0872               	movf	EEPROM_Read@add+1,w
  3348     0128  120A  158A  27D4  120A  118A  	fcall	_i2c_write
  3349                           
  3350                           ;RTC_EEPROM_driver.c: 81:   i2c_write((unsigned char)add);
  3351     012D  0871               	movf	EEPROM_Read@add,w
  3352     012E  120A  158A  27D4  120A  118A  	fcall	_i2c_write
  3353                           
  3354                           ;RTC_EEPROM_driver.c: 82:   i2c_rep_start();
  3355     0133  120A  158A  2772  120A  118A  	fcall	_i2c_rep_start
  3356                           
  3357                           ;RTC_EEPROM_driver.c: 83:   i2c_write(0xA1);
  3358     0138  30A1               	movlw	161
  3359     0139  120A  158A  27D4  120A  118A  	fcall	_i2c_write
  3360     013E  120A  158A  27E9  120A  118A  	fcall	_i2c_read
  3361                           
  3362                           ;RTC_EEPROM_driver.c: 85:   I2C_NACK();
  3363     0143  120A  158A  278D  120A  118A  	fcall	_I2C_NACK
  3364                           
  3365                           ;RTC_EEPROM_driver.c: 86:   i2c_stop();
  3366     0148  120A  158A  2784  120A  118A  	fcall	_i2c_stop
  3367     014D                     l182:
  3368     014D  0008               	return
  3369     014E                     __end_of_EEPROM_Read:
  3370                           
  3371                           	psect	text16
  3372     0FD4                     __ptext16:	
  3373 ;; *************** function _i2c_write *****************
  3374 ;; Defined at:
  3375 ;;		line 36 in file "RTC_EEPROM_driver.c"
  3376 ;; Parameters:    Size  Location     Type
  3377 ;;  data            1    wreg     unsigned char 
  3378 ;; Auto vars:     Size  Location     Type
  3379 ;;  data            1    0[COMMON] unsigned char 
  3380 ;; Return value:  Size  Location     Type
  3381 ;;                  1    wreg      unsigned char 
  3382 ;; Registers used:
  3383 ;;		wreg, status,2, status,0, pclath, cstack
  3384 ;; Tracked objects:
  3385 ;;		On entry : 0/0
  3386 ;;		On exit  : 0/0
  3387 ;;		Unchanged: 0/0
  3388 ;; Data sizes:     COMMON   BANK0   BANK1   BANK3   BANK2
  3389 ;;      Params:         0       0       0       0       0
  3390 ;;      Locals:         1       0       0       0       0
  3391 ;;      Temps:          0       0       0       0       0
  3392 ;;      Totals:         1       0       0       0       0
  3393 ;;Total ram usage:        1 bytes
  3394 ;; Hardware stack levels used: 1
  3395 ;; Hardware stack levels required when called: 1
  3396 ;; This function calls:
  3397 ;;		_i2c_wait
  3398 ;; This function is called by:
  3399 ;;		_EEPROM_Write
  3400 ;;		_EEPROM_Read
  3401 ;;		_setup
  3402 ;;		_update
  3403 ;; This function uses a non-reentrant model
  3404 ;;
  3405                           
  3406     0FD4                     _i2c_write:	
  3407                           ;psect for function _i2c_write
  3408                           
  3409                           
  3410                           ;incstack = 0
  3411                           ; Regs used in _i2c_write: [wreg+status,2+status,0+pclath+cstack]
  3412                           ;i2c_write@data stored from wreg
  3413     0FD4  00F0               	movwf	i2c_write@data
  3414     0FD5                     l1305:
  3415                           
  3416                           ;RTC_EEPROM_driver.c: 37:   i2c_wait();
  3417     0FD5  120A  118A  2004  120A  158A  	fcall	_i2c_wait
  3418     0FDA                     l1307:
  3419                           
  3420                           ;RTC_EEPROM_driver.c: 38:   SSPBUF = data;
  3421     0FDA  0870               	movf	i2c_write@data,w
  3422     0FDB  1283               	bcf	3,5	;RP0=0, select bank0
  3423     0FDC  1303               	bcf	3,6	;RP1=0, select bank0
  3424     0FDD  0093               	movwf	19	;volatile
  3425     0FDE                     l155:	
  3426                           ;RTC_EEPROM_driver.c: 39:   while(!SSPIF);
  3427                           
  3428     0FDE  1D8C               	btfss	12,3	;volatile
  3429     0FDF  2FE1               	goto	u701
  3430     0FE0  2FE2               	goto	u700
  3431     0FE1                     u701:
  3432     0FE1  2FDE               	goto	l155
  3433     0FE2                     u700:
  3434     0FE2                     l157:
  3435                           
  3436                           ;RTC_EEPROM_driver.c: 40:   SSPIF = 0;
  3437     0FE2  118C               	bcf	12,3	;volatile
  3438     0FE3                     l1309:
  3439                           
  3440                           ;RTC_EEPROM_driver.c: 41:   return ACKSTAT;
  3441     0FE3  3000               	movlw	0
  3442     0FE4  1683               	bsf	3,5	;RP0=1, select bank1
  3443     0FE5  1303               	bcf	3,6	;RP1=0, select bank1
  3444     0FE6  1B11               	btfsc	17,6	;volatile
  3445     0FE7  3001               	movlw	1
  3446     0FE8                     l158:
  3447     0FE8  0008               	return
  3448     0FE9                     __end_of_i2c_write:
  3449                           
  3450                           	psect	text17
  3451     0F84                     __ptext17:	
  3452 ;; *************** function _i2c_stop *****************
  3453 ;; Defined at:
  3454 ;;		line 31 in file "RTC_EEPROM_driver.c"
  3455 ;; Parameters:    Size  Location     Type
  3456 ;;		None
  3457 ;; Auto vars:     Size  Location     Type
  3458 ;;		None
  3459 ;; Return value:  Size  Location     Type
  3460 ;;                  1    wreg      void 
  3461 ;; Registers used:
  3462 ;;		wreg, status,2, status,0, pclath, cstack
  3463 ;; Tracked objects:
  3464 ;;		On entry : 0/0
  3465 ;;		On exit  : 0/0
  3466 ;;		Unchanged: 0/0
  3467 ;; Data sizes:     COMMON   BANK0   BANK1   BANK3   BANK2
  3468 ;;      Params:         0       0       0       0       0
  3469 ;;      Locals:         0       0       0       0       0
  3470 ;;      Temps:          0       0       0       0       0
  3471 ;;      Totals:         0       0       0       0       0
  3472 ;;Total ram usage:        0 bytes
  3473 ;; Hardware stack levels used: 1
  3474 ;; Hardware stack levels required when called: 1
  3475 ;; This function calls:
  3476 ;;		_i2c_wait
  3477 ;; This function is called by:
  3478 ;;		_EEPROM_Write
  3479 ;;		_EEPROM_Read
  3480 ;;		_setup
  3481 ;;		_update
  3482 ;; This function uses a non-reentrant model
  3483 ;;
  3484                           
  3485     0F84                     _i2c_stop:	
  3486                           ;psect for function _i2c_stop
  3487                           
  3488     0F84                     l1301:	
  3489                           ;incstack = 0
  3490                           ; Regs used in _i2c_stop: [wreg+status,2+status,0+pclath+cstack]
  3491                           
  3492                           
  3493                           ;RTC_EEPROM_driver.c: 32:   i2c_wait();
  3494     0F84  120A  118A  2004  120A  158A  	fcall	_i2c_wait
  3495     0F89                     l1303:
  3496                           
  3497                           ;RTC_EEPROM_driver.c: 33:   PEN = 1;
  3498     0F89  1683               	bsf	3,5	;RP0=1, select bank1
  3499     0F8A  1303               	bcf	3,6	;RP1=0, select bank1
  3500     0F8B  1511               	bsf	17,2	;volatile
  3501     0F8C                     l152:
  3502     0F8C  0008               	return
  3503     0F8D                     __end_of_i2c_stop:
  3504                           
  3505                           	psect	text18
  3506     0F7B                     __ptext18:	
  3507 ;; *************** function _i2c_start *****************
  3508 ;; Defined at:
  3509 ;;		line 21 in file "RTC_EEPROM_driver.c"
  3510 ;; Parameters:    Size  Location     Type
  3511 ;;		None
  3512 ;; Auto vars:     Size  Location     Type
  3513 ;;		None
  3514 ;; Return value:  Size  Location     Type
  3515 ;;                  1    wreg      void 
  3516 ;; Registers used:
  3517 ;;		wreg, status,2, status,0, pclath, cstack
  3518 ;; Tracked objects:
  3519 ;;		On entry : 0/0
  3520 ;;		On exit  : 0/0
  3521 ;;		Unchanged: 0/0
  3522 ;; Data sizes:     COMMON   BANK0   BANK1   BANK3   BANK2
  3523 ;;      Params:         0       0       0       0       0
  3524 ;;      Locals:         0       0       0       0       0
  3525 ;;      Temps:          0       0       0       0       0
  3526 ;;      Totals:         0       0       0       0       0
  3527 ;;Total ram usage:        0 bytes
  3528 ;; Hardware stack levels used: 1
  3529 ;; Hardware stack levels required when called: 1
  3530 ;; This function calls:
  3531 ;;		_i2c_wait
  3532 ;; This function is called by:
  3533 ;;		_EEPROM_Write
  3534 ;;		_EEPROM_Read
  3535 ;;		_setup
  3536 ;;		_update
  3537 ;; This function uses a non-reentrant model
  3538 ;;
  3539                           
  3540     0F7B                     _i2c_start:	
  3541                           ;psect for function _i2c_start
  3542                           
  3543     0F7B                     l1293:	
  3544                           ;incstack = 0
  3545                           ; Regs used in _i2c_start: [wreg+status,2+status,0+pclath+cstack]
  3546                           
  3547                           
  3548                           ;RTC_EEPROM_driver.c: 22:   i2c_wait();
  3549     0F7B  120A  118A  2004  120A  158A  	fcall	_i2c_wait
  3550     0F80                     l1295:
  3551                           
  3552                           ;RTC_EEPROM_driver.c: 23:   SEN = 1;
  3553     0F80  1683               	bsf	3,5	;RP0=1, select bank1
  3554     0F81  1303               	bcf	3,6	;RP1=0, select bank1
  3555     0F82  1411               	bsf	17,0	;volatile
  3556     0F83                     l146:
  3557     0F83  0008               	return
  3558     0F84                     __end_of_i2c_start:
  3559                           
  3560                           	psect	text19
  3561     0F72                     __ptext19:	
  3562 ;; *************** function _i2c_rep_start *****************
  3563 ;; Defined at:
  3564 ;;		line 26 in file "RTC_EEPROM_driver.c"
  3565 ;; Parameters:    Size  Location     Type
  3566 ;;		None
  3567 ;; Auto vars:     Size  Location     Type
  3568 ;;		None
  3569 ;; Return value:  Size  Location     Type
  3570 ;;                  1    wreg      void 
  3571 ;; Registers used:
  3572 ;;		wreg, status,2, status,0, pclath, cstack
  3573 ;; Tracked objects:
  3574 ;;		On entry : 0/0
  3575 ;;		On exit  : 0/0
  3576 ;;		Unchanged: 0/0
  3577 ;; Data sizes:     COMMON   BANK0   BANK1   BANK3   BANK2
  3578 ;;      Params:         0       0       0       0       0
  3579 ;;      Locals:         0       0       0       0       0
  3580 ;;      Temps:          0       0       0       0       0
  3581 ;;      Totals:         0       0       0       0       0
  3582 ;;Total ram usage:        0 bytes
  3583 ;; Hardware stack levels used: 1
  3584 ;; Hardware stack levels required when called: 1
  3585 ;; This function calls:
  3586 ;;		_i2c_wait
  3587 ;; This function is called by:
  3588 ;;		_EEPROM_Write
  3589 ;;		_EEPROM_Read
  3590 ;; This function uses a non-reentrant model
  3591 ;;
  3592                           
  3593     0F72                     _i2c_rep_start:	
  3594                           ;psect for function _i2c_rep_start
  3595                           
  3596     0F72                     l1297:	
  3597                           ;incstack = 0
  3598                           ; Regs used in _i2c_rep_start: [wreg+status,2+status,0+pclath+cstack]
  3599                           
  3600                           
  3601                           ;RTC_EEPROM_driver.c: 27:   i2c_wait();
  3602     0F72  120A  118A  2004  120A  158A  	fcall	_i2c_wait
  3603     0F77                     l1299:
  3604                           
  3605                           ;RTC_EEPROM_driver.c: 28:   RSEN = 1;
  3606     0F77  1683               	bsf	3,5	;RP0=1, select bank1
  3607     0F78  1303               	bcf	3,6	;RP1=0, select bank1
  3608     0F79  1491               	bsf	17,1	;volatile
  3609     0F7A                     l149:
  3610     0F7A  0008               	return
  3611     0F7B                     __end_of_i2c_rep_start:
  3612                           
  3613                           	psect	text20
  3614     0FE9                     __ptext20:	
  3615 ;; *************** function _i2c_read *****************
  3616 ;; Defined at:
  3617 ;;		line 44 in file "RTC_EEPROM_driver.c"
  3618 ;; Parameters:    Size  Location     Type
  3619 ;;		None
  3620 ;; Auto vars:     Size  Location     Type
  3621 ;;		None
  3622 ;; Return value:  Size  Location     Type
  3623 ;;                  1    wreg      unsigned char 
  3624 ;; Registers used:
  3625 ;;		wreg, status,2, status,0, pclath, cstack
  3626 ;; Tracked objects:
  3627 ;;		On entry : 0/0
  3628 ;;		On exit  : 0/0
  3629 ;;		Unchanged: 0/0
  3630 ;; Data sizes:     COMMON   BANK0   BANK1   BANK3   BANK2
  3631 ;;      Params:         0       0       0       0       0
  3632 ;;      Locals:         0       0       0       0       0
  3633 ;;      Temps:          0       0       0       0       0
  3634 ;;      Totals:         0       0       0       0       0
  3635 ;;Total ram usage:        0 bytes
  3636 ;; Hardware stack levels used: 1
  3637 ;; Hardware stack levels required when called: 1
  3638 ;; This function calls:
  3639 ;;		_i2c_wait
  3640 ;; This function is called by:
  3641 ;;		_EEPROM_Read
  3642 ;;		_update
  3643 ;; This function uses a non-reentrant model
  3644 ;;
  3645                           
  3646     0FE9                     _i2c_read:	
  3647                           ;psect for function _i2c_read
  3648                           
  3649     0FE9                     l1313:	
  3650                           ;incstack = 0
  3651                           ; Regs used in _i2c_read: [wreg+status,2+status,0+pclath+cstack]
  3652                           
  3653                           
  3654                           ;RTC_EEPROM_driver.c: 45:   i2c_wait();
  3655     0FE9  120A  118A  2004  120A  158A  	fcall	_i2c_wait
  3656     0FEE                     l1315:
  3657                           
  3658                           ;RTC_EEPROM_driver.c: 46:   RCEN = 1;
  3659     0FEE  1683               	bsf	3,5	;RP0=1, select bank1
  3660     0FEF  1303               	bcf	3,6	;RP1=0, select bank1
  3661     0FF0  1591               	bsf	17,3	;volatile
  3662     0FF1                     l161:	
  3663                           ;RTC_EEPROM_driver.c: 47:   while(!SSPIF);
  3664                           
  3665     0FF1  1283               	bcf	3,5	;RP0=0, select bank0
  3666     0FF2  1D8C               	btfss	12,3	;volatile
  3667     0FF3  2FF5               	goto	u711
  3668     0FF4  2FF6               	goto	u710
  3669     0FF5                     u711:
  3670     0FF5  2FF1               	goto	l161
  3671     0FF6                     u710:
  3672     0FF6                     l163:
  3673                           
  3674                           ;RTC_EEPROM_driver.c: 48:   SSPIF = 0;
  3675     0FF6  118C               	bcf	12,3	;volatile
  3676     0FF7                     l1317:
  3677                           
  3678                           ;RTC_EEPROM_driver.c: 49:   i2c_wait();
  3679     0FF7  120A  118A  2004  120A  158A  	fcall	_i2c_wait
  3680     0FFC                     l1319:
  3681                           
  3682                           ;RTC_EEPROM_driver.c: 50:   return SSPBUF;
  3683     0FFC  1283               	bcf	3,5	;RP0=0, select bank0
  3684     0FFD  1303               	bcf	3,6	;RP1=0, select bank0
  3685     0FFE  0813               	movf	19,w	;volatile
  3686     0FFF                     l164:
  3687     0FFF  0008               	return
  3688     1000                     __end_of_i2c_read:
  3689                           
  3690                           	psect	text21
  3691     0F8D                     __ptext21:	
  3692 ;; *************** function _I2C_NACK *****************
  3693 ;; Defined at:
  3694 ;;		line 59 in file "RTC_EEPROM_driver.c"
  3695 ;; Parameters:    Size  Location     Type
  3696 ;;		None
  3697 ;; Auto vars:     Size  Location     Type
  3698 ;;		None
  3699 ;; Return value:  Size  Location     Type
  3700 ;;                  1    wreg      void 
  3701 ;; Registers used:
  3702 ;;		wreg, status,2, status,0, pclath, cstack
  3703 ;; Tracked objects:
  3704 ;;		On entry : 0/0
  3705 ;;		On exit  : 0/0
  3706 ;;		Unchanged: 0/0
  3707 ;; Data sizes:     COMMON   BANK0   BANK1   BANK3   BANK2
  3708 ;;      Params:         0       0       0       0       0
  3709 ;;      Locals:         0       0       0       0       0
  3710 ;;      Temps:          0       0       0       0       0
  3711 ;;      Totals:         0       0       0       0       0
  3712 ;;Total ram usage:        0 bytes
  3713 ;; Hardware stack levels used: 1
  3714 ;; Hardware stack levels required when called: 1
  3715 ;; This function calls:
  3716 ;;		_i2c_wait
  3717 ;; This function is called by:
  3718 ;;		_EEPROM_Read
  3719 ;; This function uses a non-reentrant model
  3720 ;;
  3721                           
  3722     0F8D                     _I2C_NACK:	
  3723                           ;psect for function _I2C_NACK
  3724                           
  3725     0F8D                     l1323:	
  3726                           ;incstack = 0
  3727                           ; Regs used in _I2C_NACK: [wreg+status,2+status,0+pclath+cstack]
  3728                           
  3729                           
  3730                           ;RTC_EEPROM_driver.c: 60:   ACKDT = 1;
  3731     0F8D  1683               	bsf	3,5	;RP0=1, select bank1
  3732     0F8E  1303               	bcf	3,6	;RP1=0, select bank1
  3733     0F8F  1691               	bsf	17,5	;volatile
  3734     0F90                     l1325:
  3735                           
  3736                           ;RTC_EEPROM_driver.c: 61:   i2c_wait();
  3737     0F90  120A  118A  2004  120A  158A  	fcall	_i2c_wait
  3738     0F95                     l1327:
  3739                           
  3740                           ;RTC_EEPROM_driver.c: 62:   ACKEN = 1;
  3741     0F95  1683               	bsf	3,5	;RP0=1, select bank1
  3742     0F96  1303               	bcf	3,6	;RP1=0, select bank1
  3743     0F97  1611               	bsf	17,4	;volatile
  3744     0F98                     l170:
  3745     0F98  0008               	return
  3746     0F99                     __end_of_I2C_NACK:
  3747                           
  3748                           	psect	text22
  3749     0004                     __ptext22:	
  3750 ;; *************** function _i2c_wait *****************
  3751 ;; Defined at:
  3752 ;;		line 17 in file "RTC_EEPROM_driver.c"
  3753 ;; Parameters:    Size  Location     Type
  3754 ;;		None
  3755 ;; Auto vars:     Size  Location     Type
  3756 ;;		None
  3757 ;; Return value:  Size  Location     Type
  3758 ;;                  1    wreg      void 
  3759 ;; Registers used:
  3760 ;;		wreg, status,2
  3761 ;; Tracked objects:
  3762 ;;		On entry : 0/0
  3763 ;;		On exit  : 0/0
  3764 ;;		Unchanged: 0/0
  3765 ;; Data sizes:     COMMON   BANK0   BANK1   BANK3   BANK2
  3766 ;;      Params:         0       0       0       0       0
  3767 ;;      Locals:         0       0       0       0       0
  3768 ;;      Temps:          0       0       0       0       0
  3769 ;;      Totals:         0       0       0       0       0
  3770 ;;Total ram usage:        0 bytes
  3771 ;; Hardware stack levels used: 1
  3772 ;; This function calls:
  3773 ;;		Nothing
  3774 ;; This function is called by:
  3775 ;;		_i2c_start
  3776 ;;		_i2c_rep_start
  3777 ;;		_i2c_stop
  3778 ;;		_i2c_write
  3779 ;;		_i2c_read
  3780 ;;		_I2C_NACK
  3781 ;;		_I2C_ACK
  3782 ;; This function uses a non-reentrant model
  3783 ;;
  3784                           
  3785     0004                     _i2c_wait:	
  3786                           ;psect for function _i2c_wait
  3787                           
  3788     0004                     l1173:	
  3789                           ;incstack = 0
  3790                           ; Regs used in _i2c_wait: [wreg+status,2]
  3791                           
  3792     0004                     l140:	
  3793                           ;RTC_EEPROM_driver.c: 18:   while ((SSPSTAT & 0x04) || (SSPCON2 & 0x1F));
  3794                           
  3795     0004  1683               	bsf	3,5	;RP0=1, select bank1
  3796     0005  1303               	bcf	3,6	;RP1=0, select bank1
  3797     0006  1914               	btfsc	20,2	;volatile
  3798     0007  2809               	goto	u451
  3799     0008  280A               	goto	u450
  3800     0009                     u451:
  3801     0009  2804               	goto	l140
  3802     000A                     u450:
  3803     000A                     l1175:
  3804     000A  0811               	movf	17,w	;volatile
  3805     000B  391F               	andlw	31
  3806     000C  1D03               	btfss	3,2
  3807     000D  280F               	goto	u461
  3808     000E  2810               	goto	u460
  3809     000F                     u461:
  3810     000F  2804               	goto	l140
  3811     0010                     u460:
  3812     0010                     l143:
  3813     0010  0008               	return
  3814     0011                     __end_of_i2c_wait:
  3815     007E                     btemp	set	126	;btemp
  3816     007E                     wtemp0	set	126

Data Sizes:
    Strings     0
    Constant    0
    Data        32
    BSS         4
    Persistent  0
    Stack       0

Auto Spaces:
    Space          Size  Autos    Used
    COMMON           14     14      14
    BANK0            80     18      54
    BANK1            80      0       0
    BANK3            96      0       0
    BANK2            96      0       0

Pointer List with Targets:

    None.

Critical Paths under _main in COMMON

    _update->_bcd2dec
    _bcd2dec->___wmul
    _setup->_dec2bcd
    _dec2bcd->___awdiv
    _init->_lcd_cmd
    _i2c_init->___lldiv
    _days->_lcd_data
    _EEPROM_Write->_i2c_write
    _EEPROM_Read->_i2c_write

Critical Paths under _main in BANK0

    _main->_i2c_init

Critical Paths under _main in BANK1

    None.

Critical Paths under _main in BANK3

    None.

Critical Paths under _main in BANK2

    None.

Call Graph Tables:

 ---------------------------------------------------------------------------------
 (Depth) Function   	        Calls       Base Space   Used Autos Params    Refs
 ---------------------------------------------------------------------------------
 (0) _main                                                12    12      0   12291
                                              8 BANK0     10    10      0
                        _EEPROM_Read
                       _EEPROM_Write
                            ___awdiv
                            ___awmod
                               _days
                            _dec2bcd
                           _i2c_init
                               _init
                            _lcd_cmd
                           _lcd_data
                              _setup
                             _update
 ---------------------------------------------------------------------------------
 (1) _update                                               2     2      0     842
                                             10 COMMON     2     2      0
                            _bcd2dec
                           _i2c_read
                          _i2c_start
                           _i2c_stop
                          _i2c_write
 ---------------------------------------------------------------------------------
 (2) _bcd2dec                                              4     2      2     820
                                              6 COMMON     4     2      2
                             ___wmul
                           _i2c_read (ARG)
 ---------------------------------------------------------------------------------
 (3) ___wmul                                               6     2      4     244
                                              0 COMMON     6     2      4
 ---------------------------------------------------------------------------------
 (1) _setup                                                0     0      0    3550
                            _dec2bcd
                          _i2c_start
                           _i2c_stop
                          _i2c_write
 ---------------------------------------------------------------------------------
 (2) _dec2bcd                                              4     2      2    3528
                                              8 COMMON     4     2      2
                            ___awdiv
                            ___awmod
 ---------------------------------------------------------------------------------
 (3) ___awmod                                              6     2      4    1360
                                              0 COMMON     6     2      4
 ---------------------------------------------------------------------------------
 (3) ___awdiv                                              8     4      4    1364
                                              0 COMMON     8     4      4
 ---------------------------------------------------------------------------------
 (1) _init                                                 2     2      0      22
                                              3 COMMON     2     2      0
                            _lcd_cmd
 ---------------------------------------------------------------------------------
 (1) _lcd_cmd                                              3     3      0      22
                                              0 COMMON     3     3      0
 ---------------------------------------------------------------------------------
 (1) _i2c_init                                             8     4      4     412
                                              0 BANK0      8     4      4
                            ___lldiv
 ---------------------------------------------------------------------------------
 (2) ___lldiv                                             14     6      8     314
                                              0 COMMON    14     6      8
 ---------------------------------------------------------------------------------
 (1) _days                                                 2     0      2     120
                                              3 COMMON     2     0      2
                           _lcd_data
 ---------------------------------------------------------------------------------
 (1) _lcd_data                                             3     3      0      22
                                              0 COMMON     3     3      0
 ---------------------------------------------------------------------------------
 (1) _EEPROM_Write                                         3     0      3     544
                                              1 COMMON     3     0      3
                      _i2c_rep_start
                          _i2c_start
                           _i2c_stop
                          _i2c_write
 ---------------------------------------------------------------------------------
 (1) _EEPROM_Read                                          3     1      2     301
                                              1 COMMON     2     0      2
                           _I2C_NACK
                           _i2c_read
                      _i2c_rep_start
                          _i2c_start
                           _i2c_stop
                          _i2c_write
 ---------------------------------------------------------------------------------
 (2) _i2c_write                                            1     1      0      22
                                              0 COMMON     1     1      0
                           _i2c_wait
 ---------------------------------------------------------------------------------
 (2) _i2c_stop                                             0     0      0       0
                           _i2c_wait
 ---------------------------------------------------------------------------------
 (2) _i2c_start                                            0     0      0       0
                           _i2c_wait
 ---------------------------------------------------------------------------------
 (2) _i2c_rep_start                                        0     0      0       0
                           _i2c_wait
 ---------------------------------------------------------------------------------
 (2) _i2c_read                                             0     0      0       0
                           _i2c_wait
 ---------------------------------------------------------------------------------
 (2) _I2C_NACK                                             0     0      0       0
                           _i2c_wait
 ---------------------------------------------------------------------------------
 (3) _i2c_wait                                             0     0      0       0
 ---------------------------------------------------------------------------------
 Estimated maximum stack depth 3
 ---------------------------------------------------------------------------------

 Call Graph Graphs:

 _main (ROOT)
   _EEPROM_Read
     _I2C_NACK
       _i2c_wait
     _i2c_read
       _i2c_wait
     _i2c_rep_start
       _i2c_wait
     _i2c_start
       _i2c_wait
     _i2c_stop
       _i2c_wait
     _i2c_write
       _i2c_wait
   _EEPROM_Write
     _i2c_rep_start
     _i2c_start
     _i2c_stop
     _i2c_write
   ___awdiv
   ___awmod
   _days
     _lcd_data
   _dec2bcd
     ___awdiv
     ___awmod
   _i2c_init
     ___lldiv
   _init
     _lcd_cmd
   _lcd_cmd
   _lcd_data
   _setup
     _dec2bcd
     _i2c_start
     _i2c_stop
     _i2c_write
   _update
     _bcd2dec
       ___wmul
       _i2c_read (ARG)
     _i2c_read
     _i2c_start
     _i2c_stop
     _i2c_write

 Address spaces:
Name               Size   Autos  Total    Cost      Usage
BANK3               60      0       0       9        0.0%
BITBANK3            60      0       0       8        0.0%
SFR3                 0      0       0       4        0.0%
BITSFR3              0      0       0       4        0.0%
BANK2               60      0       0      11        0.0%
BITBANK2            60      0       0      10        0.0%
SFR2                 0      0       0       5        0.0%
BITSFR2              0      0       0       5        0.0%
BANK1               50      0       0       7        0.0%
BITBANK1            50      0       0       6        0.0%
SFR1                 0      0       0       2        0.0%
BITSFR1              0      0       0       2        0.0%
BANK0               50     12      36       5       67.5%
BITBANK0            50      0       0       4        0.0%
SFR0                 0      0       0       1        0.0%
BITSFR0              0      0       0       1        0.0%
COMMON               E      E       E       1      100.0%
BITCOMMON            E      0       0       0        0.0%
CODE                 0      0       0       0        0.0%
DATA                 0      0      44      12        0.0%
ABS                  0      0      44       3        0.0%
NULL                 0      0       0       0        0.0%
STACK                0      0       0       2        0.0%
EEDATA             100      0       0       0        0.0%


Microchip Technology PIC Macro Assembler V2.45 build 20230818022343 
Symbol Table                                                                                   Thu May 30 18:02:31 2024

                      _i 0054                        pc 0002             ___awdiv@sign 0075  
                     fsr 0004      ___wmul@multiplicand 0072                      l203 0443  
                    l140 0004                      l212 0376                      l301 003D  
                    l206 00D8                      l143 0010                      l303 0055  
                    l215 0519                      l152 0F8C                      l161 0FF1  
                    l137 0110                      l209 007A                      l170 0F98  
                    l146 0F83                      l163 0FF6                      l155 0FDE  
                    l164 0FFF                      l149 0F7A                      l157 0FE2  
                    l173 0086                      l158 0FE8                      l182 014D  
                    l191 02E7                      l176 00A8                      l337 020C  
                    l185 0FD3                      l179 011C                      l188 0FBF  
                    l454 0273                      l467 01A6                      _RC0 0038  
                    _RC1 0039                      u500 0051                      u501 0050  
                    u510 0212                      u511 0211                      u600 026A  
                    u520 021D                      _PEN 048A                      u601 0269  
                    u521 021C                      u450 000A                      u530 022E  
                    u610 0153                      u451 0009                      u531 022D  
                    u611 0152                      u460 0010                      u700 0FE2  
                    u620 015E                      u461 000F                      u701 0FE1  
                    u621 015D                      u710 0FF6                      u550 0240  
                    u630 0169                      u470 0037                      u711 0FF5  
                    u551 023F                      u631 0168                      u471 0036  
                    u800 0091                      u720 01B7                      u801 0090  
                    u721 01B6                      u545 0232                      u810 0127  
                    u570 0251                      u650 017B                      u811 0126  
                    u571 0250                      u651 017A                      u740 01CB  
                    u660 0185                      u820 05F5                      _SEN 0488  
                    u741 01CA                      u565 0241                      u661 0184  
                    u645 016D                      u485 003E                      u821 05F4  
                    u590 0265                      u830 0694                      u735 01BC  
                    u591 0264                      u575 024D                      u495 0045  
                    u831 0693                      u760 01E6                      u680 0198  
                    u840 06B9                      u761 01E5                      u585 0259  
                    u681 0197                      u665 0181                      u841 06B8  
                    u825 05F1                      u690 019D                      u850 06DF  
                    u755 01CD                      u691 019C                      u675 018C  
                    u851 06DE                      u907 056E                      u780 0204  
                    u860 070A                      u781 0203                      u765 01E2  
                    u861 0709                      u845 06B5                      u917 0588  
                    u790 00F0                      u870 07B3                      u775 01F6  
                    u927 07DF                      u871 07B2                      u855 06DB  
                    u880 07C6                      u937 0288                      u881 07C5  
                    u865 0706                      u795 00EB                      u947 0297  
                    u957 02A6                      u885 07C2                      u967 02B5  
                    u977 02C4                      u897 0554                      u987 02D3  
                    u997 02E2                      _day 0034                      _min 003C  
                    _sec 003E                      fsr0 0004                      indf 0000  
           ___awmod@sign 0075                     l1201 021D                     l1211 0231  
                   l1203 0222                     l1301 0F84                     l1221 0257  
                   l1213 0238                     l1205 0226                     l1303 0F89  
                   l1231 026F                     l1223 0258                     l1215 023C  
                   l1207 0228                     l1313 0FE9                     l1305 0FD5  
                   l1225 025F                     l1217 0240                     l1209 022E  
                   l1241 0158                     l1401 031B                     l1323 0F8D  
                   l1315 0FEE                     l1307 0FDA                     l1219 0251  
                   l1227 0265                     l1251 016C                     l1243 015A  
                   l1235 014E                     l1411 0371                     l1403 032D  
                   l1173 0004                     l1325 0F90                     l1317 0FF7  
                   l1309 0FE3                     l1421 0117                     l1413 007B  
                   l1341 01C7                     l1333 01A7                     l1229 026A  
                   l1261 018B                     l1253 0173                     l1245 015E  
                   l1237 014F                     l1405 033E                     l1181 0037  
                   l1501 0653                     l1175 000A                     l1327 0F95  
                   l1319 0FFC                     l1423 0127                     l1415 0081  
                   l1431 0378                     l1351 01F5                     l1343 01CB  
                   l1335 01B7                     l1191 020D                     l1263 0192  
                   l1255 0177                     l1247 0163                     l1239 0153  
                   l1407 034F                     l1183 0044                     l1511 06A4  
                   l1503 0694                     l1417 0091                     l1441 03F5  
                   l1433 0391                     l1353 01FE                     l1345 01D4  
                   l1337 01BA                     l1361 00DD                     l1281 0FC6  
                   l1193 020E                     l1257 017B                     l1249 0169  
                   l1265 0198                     l1273 00A9                     l1409 0360  
                   l1185 004B                     l1177 0031                     l1329 0056  
                   l1521 06BE                     l1513 06AC                     l1419 0111  
                   l1291 0FBC                     l1443 040E                     l1435 03AA  
                   l1347 01E6                     l1339 01C3                     l1355 0204  
                   l1363 00E0                     l1283 0FD0                     l1371 0278  
                   l1195 0212                     l1267 019D                     l1259 0185  
                   l1187 0051                     l1179 0033                     l1427 0444  
                   l1523 06CA                     l1515 06BA                     l1293 0F7B  
                   l1285 0FAD                     l1437 03C3                     l1429 0377  
                   l1349 01F4                     l1365 010D                     l1277 0FC1  
                   l1381 029C                     l1373 027B                     l1197 0217  
                   l1269 01A2                     l1541 070A                     l1525 06D2  
                   l1509 0698                     l1461 0541                     l1453 051A  
                   l1295 0F80                     l1287 0FB0                     l1439 03DC  
                   l1447 0427                     l1367 010E                     l1359 00D9  
                   l1279 0FC4                     l1391 02D8                     l1383 02AB  
                   l1375 027E                     l1199 0219                     l1551 07B3  
                   l1543 0736                     l1535 06E9                     l1527 06DF  
                   l1471 0598                     l1463 055B                     l1455 052A  
                   l1297 0F72                     l1289 0FB2                     l1393 02DE  
                   l1385 02B1                     l1377 0284                     l1369 0274  
                   l1553 07B9                     l1545 073C                     l1537 06F5  
                   l1529 06E5                     l1481 05D0                     l1473 05A1  
                   l1465 0566                     l1457 0537                     l1299 0F77  
                   l1387 02C0                     l1379 0293                     l1395 02E8  
                   l1555 07C6                     l1547 0752                     l1539 06FD  
                   l1491 05E8                     l1475 05AA                     l1467 0580  
                   l1459 053C                     l1389 02C9                     l1397 02F9  
                   l1557 07CC                     l1549 0768                     l1493 05F5  
                   l1477 05AF                     l1469 058F                     l1399 030A  
                   l1559 07D7                     l1495 0621                     l1487 05D4  
                   l1479 05CA                     l1497 0627                     l1489 05E0  
                   l1587 042C                     l1499 063D                     u1007 0FCB  
                   u1017 0FB7                     _RCEN 048B                     _RSEN 0489  
       __end_of_I2C_NACK 0F99                     _date 0038                     _days 0377  
                   _main 051A                     _msg1 0025                     _msg2 0020  
                   _init 0274                     _hour 003A                     _year 0032  
                   btemp 007E                     start 0000          EEPROM_Write@add 0071  
          _i2c_rep_start 0F72     __end_of_EEPROM_Write 00A9          __end_of_bcd2dec 007B  
                  ?_days 0073                    ?_main 0070          __end_of_dec2bcd 00D9  
                  _ACKEN 048C                    _ACKDT 048D                    ?_init 0070  
        __end_of___awdiv 0274          __end_of___awmod 01A7          __end_of___lldiv 020D  
        ___awdiv@divisor 0070          ___awdiv@counter 0074                    _PORTC 0007  
                  _PORTD 0008                    _TRISC 0087                    _TRISD 0088  
                  _SSPIF 0063          __end_of_lcd_cmd 0FD4                    _mode1 002E  
                  _mode2 002A                    _hour1 0052                    _month 0036  
                  _setup 02E8                    pclath 000A                    status 0003  
                  wtemp0 007E         EEPROM_Write@data 0073          __initialization 07EA  
         ?_i2c_rep_start 0070             __end_of_days 0444             __end_of_main 07EA  
           __end_of_init 02E8         __end_of_i2c_init 0111         __end_of_i2c_read 1000  
       __end_of_i2c_wait 0011         __end_of_i2c_stop 0F8D                   ??_days 0075  
                 ??_main 0048                   ??_init 0073         ___awdiv@dividend 0072  
           i2c_init@baud 0040                   ?_setup 0070                   _SSPADD 0093  
                 _SSPCON 0014                   _SSPBUF 0013         __end_of_lcd_data 0FC0  
              ??_bcd2dec 0078                ??_dec2bcd 007A                   ___wmul 0031  
              ??___awdiv 0074                ??___awmod 0074                ??___lldiv 0078  
       ___awdiv@quotient 0076          ___awmod@divisor 0070          ___awmod@counter 0074  
                 _update 0444                ??_lcd_cmd 0070                ?_I2C_NACK 0070  
__end_of__initialization 07FC          ??_i2c_rep_start 0070           __pcstackCOMMON 0070  
           __pidataBANK0 0011            __end_of_setup 0377        __end_of_i2c_start 0F84  
             ??_I2C_NACK 0070        __end_of_i2c_write 0FE9                  ??_setup 007C  
           _EEPROM_Write 007B               __pbssBANK0 0052                ?_i2c_init 0040  
              ?_i2c_read 0070                ?_i2c_wait 0070                ?_i2c_stop 0070  
             __pmaintext 051A                  ?___wmul 0070                  _ACKSTAT 048E  
                ?_update 0070                  _SSPCON2 0091                ?_lcd_data 0070  
                _SSPSTAT 0094               ??_i2c_init 0044               ??_i2c_read 0070  
             ??_i2c_wait 0070               ??_i2c_stop 0070                  _bcd2dec 0056  
                _dec2bcd 00A9                  ___awdiv 020D                  ___awmod 014E  
                ___lldiv 01A7                  __ptext1 0444                  __ptext2 0056  
                __ptext3 0031                  __ptext4 02E8                  __ptext5 00A9  
                __ptext6 014E                  __ptext7 020D                  __ptext8 0274  
                __ptext9 0FC0                  _lcd_cmd 0FC0         ___awmod@dividend 0072  
                days@day 0073               ??_lcd_data 0070     end_of_initialization 07FC  
          ??_EEPROM_Read 0073          ___lldiv@divisor 0070          ___lldiv@counter 007D  
            bcd2dec@temp 0076            i2c_write@data 0070      __end_of_EEPROM_Read 014E  
         __end_of___wmul 0056              dec2bcd@temp 0078           __end_of_update 051A  
    start_initialization 07EA                _i2c_start 0F7B                _i2c_write 0FD4  
  __end_of_i2c_rep_start 0F7B                 ??___wmul 0074               init_fetch0 0F99  
            __pdataBANK0 0020                 ??_update 007A                ___latbits 0002  
          __pcstackBANK0 0040               ?_i2c_start 0070               ?_i2c_write 0070  
            _EEPROM_Read 0111                 ?_bcd2dec 0076                 ?_dec2bcd 0078  
               ?___awdiv 0070                 ?___awmod 0070                 ?___lldiv 0070  
               ?_lcd_cmd 0070                 _I2C_NACK 0F8D           ___wmul@product 0074  
              main@Data1 004B                main@Data2 004C                main@Data3 004D  
              lcd_data@i 0072        ___wmul@multiplier 0070              ??_i2c_start 0070  
            ??_i2c_write 0070                 _i2c_init 00D9                 _i2c_read 0FE9  
               _i2c_wait 0004                 _i2c_stop 0F84                 __ptext10 00D9  
               __ptext11 01A7                 __ptext20 0FE9                 __ptext12 0377  
               __ptext21 0F8D                 __ptext13 0FAC                 __ptext22 0004  
               __ptext14 007B                 __ptext15 0111                 __ptext16 0FD4  
               __ptext17 0F84                 __ptext18 0F7B                 __ptext19 0F72  
               _lcd_data 0FAC            ?_EEPROM_Write 0071                 main@Add2 004E  
               main@Add3 0050                 lcd_cmd@i 0072                 init_ram0 0F9D  
         ??_EEPROM_Write 0074             ?_EEPROM_Read 0071         ___lldiv@dividend 0074  
       ___lldiv@quotient 0079           EEPROM_Read@add 0071  
